
sample_bps_leader.elf:     file format elf32-littlearm


Disassembly of section .isr_vector:

08000000 <g_pfnVectors>:
 8000000:	20050000 	andcs	r0, r5, r0
 8000004:	08008b6d 	stmdaeq	r0, {r0, r2, r3, r5, r6, r8, r9, fp, pc}
 8000008:	08008041 	stmdaeq	r0, {r0, r6, pc}
 800000c:	08008051 	stmdaeq	r0, {r0, r4, r6, pc}
 8000010:	08008059 	stmdaeq	r0, {r0, r3, r4, r6, pc}
 8000014:	08008061 	stmdaeq	r0, {r0, r5, r6, pc}
 8000018:	08008069 	stmdaeq	r0, {r0, r3, r5, r6, pc}
	...
 800002c:	08008bbd 	stmdaeq	r0, {r0, r2, r3, r4, r5, r7, r8, r9, fp, pc}
 8000030:	08008bbd 	stmdaeq	r0, {r0, r2, r3, r4, r5, r7, r8, r9, fp, pc}
 8000034:	00000000 	andeq	r0, r0, r0
 8000038:	08000325 	stmdaeq	r0, {r0, r2, r5, r8, r9}
 800003c:	0800797d 	stmdaeq	r0, {r0, r2, r3, r4, r5, r6, r8, fp, ip, sp, lr}
 8000040:	08008bbd 	stmdaeq	r0, {r0, r2, r3, r4, r5, r7, r8, r9, fp, pc}
 8000044:	08008bbd 	stmdaeq	r0, {r0, r2, r3, r4, r5, r7, r8, r9, fp, pc}
 8000048:	08008bbd 	stmdaeq	r0, {r0, r2, r3, r4, r5, r7, r8, r9, fp, pc}
 800004c:	08008bbd 	stmdaeq	r0, {r0, r2, r3, r4, r5, r7, r8, r9, fp, pc}
 8000050:	08008bbd 	stmdaeq	r0, {r0, r2, r3, r4, r5, r7, r8, r9, fp, pc}
 8000054:	08008bbd 	stmdaeq	r0, {r0, r2, r3, r4, r5, r7, r8, r9, fp, pc}
 8000058:	08008bbd 	stmdaeq	r0, {r0, r2, r3, r4, r5, r7, r8, r9, fp, pc}
 800005c:	08008bbd 	stmdaeq	r0, {r0, r2, r3, r4, r5, r7, r8, r9, fp, pc}
 8000060:	08008bbd 	stmdaeq	r0, {r0, r2, r3, r4, r5, r7, r8, r9, fp, pc}
 8000064:	08008bbd 	stmdaeq	r0, {r0, r2, r3, r4, r5, r7, r8, r9, fp, pc}
 8000068:	08008bbd 	stmdaeq	r0, {r0, r2, r3, r4, r5, r7, r8, r9, fp, pc}
 800006c:	08008bbd 	stmdaeq	r0, {r0, r2, r3, r4, r5, r7, r8, r9, fp, pc}
 8000070:	08008bbd 	stmdaeq	r0, {r0, r2, r3, r4, r5, r7, r8, r9, fp, pc}
 8000074:	08008bbd 	stmdaeq	r0, {r0, r2, r3, r4, r5, r7, r8, r9, fp, pc}
 8000078:	08008bbd 	stmdaeq	r0, {r0, r2, r3, r4, r5, r7, r8, r9, fp, pc}
 800007c:	08008bbd 	stmdaeq	r0, {r0, r2, r3, r4, r5, r7, r8, r9, fp, pc}
 8000080:	08008bbd 	stmdaeq	r0, {r0, r2, r3, r4, r5, r7, r8, r9, fp, pc}
 8000084:	08008bbd 	stmdaeq	r0, {r0, r2, r3, r4, r5, r7, r8, r9, fp, pc}
 8000088:	08008bbd 	stmdaeq	r0, {r0, r2, r3, r4, r5, r7, r8, r9, fp, pc}
 800008c:	08003209 	stmdaeq	r0, {r0, r3, r9, ip, sp}
 8000090:	08003151 	stmdaeq	r0, {r0, r4, r6, r8, ip, sp}
 8000094:	08008bbd 	stmdaeq	r0, {r0, r2, r3, r4, r5, r7, r8, r9, fp, pc}
 8000098:	08008bbd 	stmdaeq	r0, {r0, r2, r3, r4, r5, r7, r8, r9, fp, pc}
 800009c:	08008bbd 	stmdaeq	r0, {r0, r2, r3, r4, r5, r7, r8, r9, fp, pc}
 80000a0:	08008bbd 	stmdaeq	r0, {r0, r2, r3, r4, r5, r7, r8, r9, fp, pc}
 80000a4:	08008bbd 	stmdaeq	r0, {r0, r2, r3, r4, r5, r7, r8, r9, fp, pc}
 80000a8:	08008bbd 	stmdaeq	r0, {r0, r2, r3, r4, r5, r7, r8, r9, fp, pc}
 80000ac:	08008bbd 	stmdaeq	r0, {r0, r2, r3, r4, r5, r7, r8, r9, fp, pc}
 80000b0:	08008bbd 	stmdaeq	r0, {r0, r2, r3, r4, r5, r7, r8, r9, fp, pc}
 80000b4:	08008bbd 	stmdaeq	r0, {r0, r2, r3, r4, r5, r7, r8, r9, fp, pc}
 80000b8:	08008bbd 	stmdaeq	r0, {r0, r2, r3, r4, r5, r7, r8, r9, fp, pc}
 80000bc:	08008bbd 	stmdaeq	r0, {r0, r2, r3, r4, r5, r7, r8, r9, fp, pc}
 80000c0:	08008bbd 	stmdaeq	r0, {r0, r2, r3, r4, r5, r7, r8, r9, fp, pc}
 80000c4:	08008bbd 	stmdaeq	r0, {r0, r2, r3, r4, r5, r7, r8, r9, fp, pc}
 80000c8:	08008bbd 	stmdaeq	r0, {r0, r2, r3, r4, r5, r7, r8, r9, fp, pc}
 80000cc:	08003b55 	stmdaeq	r0, {r0, r2, r4, r6, r8, r9, fp, ip, sp}
 80000d0:	08008bbd 	stmdaeq	r0, {r0, r2, r3, r4, r5, r7, r8, r9, fp, pc}
 80000d4:	08008bbd 	stmdaeq	r0, {r0, r2, r3, r4, r5, r7, r8, r9, fp, pc}
 80000d8:	08004061 	stmdaeq	r0, {r0, r5, r6, lr}
 80000dc:	08004199 	stmdaeq	r0, {r0, r3, r4, r7, r8, lr}
 80000e0:	08008bbd 	stmdaeq	r0, {r0, r2, r3, r4, r5, r7, r8, r9, fp, pc}
 80000e4:	08008bbd 	stmdaeq	r0, {r0, r2, r3, r4, r5, r7, r8, r9, fp, pc}
 80000e8:	08008bbd 	stmdaeq	r0, {r0, r2, r3, r4, r5, r7, r8, r9, fp, pc}
 80000ec:	08008bbd 	stmdaeq	r0, {r0, r2, r3, r4, r5, r7, r8, r9, fp, pc}
 80000f0:	08008bbd 	stmdaeq	r0, {r0, r2, r3, r4, r5, r7, r8, r9, fp, pc}
 80000f4:	08008bbd 	stmdaeq	r0, {r0, r2, r3, r4, r5, r7, r8, r9, fp, pc}
 80000f8:	08008bbd 	stmdaeq	r0, {r0, r2, r3, r4, r5, r7, r8, r9, fp, pc}
 80000fc:	08008bbd 	stmdaeq	r0, {r0, r2, r3, r4, r5, r7, r8, r9, fp, pc}
 8000100:	08008bbd 	stmdaeq	r0, {r0, r2, r3, r4, r5, r7, r8, r9, fp, pc}
 8000104:	08008bbd 	stmdaeq	r0, {r0, r2, r3, r4, r5, r7, r8, r9, fp, pc}
 8000108:	08003d79 	stmdaeq	r0, {r0, r3, r4, r5, r6, r8, sl, fp, ip, sp}
 800010c:	08003bfd 	stmdaeq	r0, {r0, r2, r3, r4, r5, r6, r7, r8, r9, fp, ip, sp}
 8000110:	08008bbd 	stmdaeq	r0, {r0, r2, r3, r4, r5, r7, r8, r9, fp, pc}
 8000114:	08008bbd 	stmdaeq	r0, {r0, r2, r3, r4, r5, r7, r8, r9, fp, pc}
 8000118:	08008bbd 	stmdaeq	r0, {r0, r2, r3, r4, r5, r7, r8, r9, fp, pc}
 800011c:	08008bbd 	stmdaeq	r0, {r0, r2, r3, r4, r5, r7, r8, r9, fp, pc}
 8000120:	08008bbd 	stmdaeq	r0, {r0, r2, r3, r4, r5, r7, r8, r9, fp, pc}
 8000124:	08008bbd 	stmdaeq	r0, {r0, r2, r3, r4, r5, r7, r8, r9, fp, pc}
 8000128:	08008bbd 	stmdaeq	r0, {r0, r2, r3, r4, r5, r7, r8, r9, fp, pc}
 800012c:	08008bbd 	stmdaeq	r0, {r0, r2, r3, r4, r5, r7, r8, r9, fp, pc}
 8000130:	08008bbd 	stmdaeq	r0, {r0, r2, r3, r4, r5, r7, r8, r9, fp, pc}
 8000134:	08008bbd 	stmdaeq	r0, {r0, r2, r3, r4, r5, r7, r8, r9, fp, pc}
 8000138:	08008bbd 	stmdaeq	r0, {r0, r2, r3, r4, r5, r7, r8, r9, fp, pc}
 800013c:	08008bbd 	stmdaeq	r0, {r0, r2, r3, r4, r5, r7, r8, r9, fp, pc}
 8000140:	08008bbd 	stmdaeq	r0, {r0, r2, r3, r4, r5, r7, r8, r9, fp, pc}
 8000144:	08008bbd 	stmdaeq	r0, {r0, r2, r3, r4, r5, r7, r8, r9, fp, pc}
 8000148:	08008bbd 	stmdaeq	r0, {r0, r2, r3, r4, r5, r7, r8, r9, fp, pc}
 800014c:	08008bbd 	stmdaeq	r0, {r0, r2, r3, r4, r5, r7, r8, r9, fp, pc}
 8000150:	08008bbd 	stmdaeq	r0, {r0, r2, r3, r4, r5, r7, r8, r9, fp, pc}
 8000154:	08008bbd 	stmdaeq	r0, {r0, r2, r3, r4, r5, r7, r8, r9, fp, pc}
 8000158:	08008bbd 	stmdaeq	r0, {r0, r2, r3, r4, r5, r7, r8, r9, fp, pc}
 800015c:	08008bbd 	stmdaeq	r0, {r0, r2, r3, r4, r5, r7, r8, r9, fp, pc}
 8000160:	08008bbd 	stmdaeq	r0, {r0, r2, r3, r4, r5, r7, r8, r9, fp, pc}
 8000164:	08008bbd 	stmdaeq	r0, {r0, r2, r3, r4, r5, r7, r8, r9, fp, pc}
 8000168:	08008bbd 	stmdaeq	r0, {r0, r2, r3, r4, r5, r7, r8, r9, fp, pc}
 800016c:	08008bbd 	stmdaeq	r0, {r0, r2, r3, r4, r5, r7, r8, r9, fp, pc}
 8000170:	08008bbd 	stmdaeq	r0, {r0, r2, r3, r4, r5, r7, r8, r9, fp, pc}
 8000174:	08008bbd 	stmdaeq	r0, {r0, r2, r3, r4, r5, r7, r8, r9, fp, pc}
	...
 8000180:	08008bbd 	stmdaeq	r0, {r0, r2, r3, r4, r5, r7, r8, r9, fp, pc}
 8000184:	08008bbd 	stmdaeq	r0, {r0, r2, r3, r4, r5, r7, r8, r9, fp, pc}
 8000188:	08008bbd 	stmdaeq	r0, {r0, r2, r3, r4, r5, r7, r8, r9, fp, pc}
 800018c:	08008bbd 	stmdaeq	r0, {r0, r2, r3, r4, r5, r7, r8, r9, fp, pc}
 8000190:	08008bbd 	stmdaeq	r0, {r0, r2, r3, r4, r5, r7, r8, r9, fp, pc}
 8000194:	08008bbd 	stmdaeq	r0, {r0, r2, r3, r4, r5, r7, r8, r9, fp, pc}
 8000198:	00000000 	andeq	r0, r0, r0
 800019c:	08008bbd 	stmdaeq	r0, {r0, r2, r3, r4, r5, r7, r8, r9, fp, pc}
 80001a0:	08008bbd 	stmdaeq	r0, {r0, r2, r3, r4, r5, r7, r8, r9, fp, pc}
 80001a4:	08008bbd 	stmdaeq	r0, {r0, r2, r3, r4, r5, r7, r8, r9, fp, pc}
	...
 80001b0:	08008bbd 	stmdaeq	r0, {r0, r2, r3, r4, r5, r7, r8, r9, fp, pc}
	...
 80001bc:	08008bbd 	stmdaeq	r0, {r0, r2, r3, r4, r5, r7, r8, r9, fp, pc}
 80001c0:	08008bbd 	stmdaeq	r0, {r0, r2, r3, r4, r5, r7, r8, r9, fp, pc}
 80001c4:	08008bbd 	stmdaeq	r0, {r0, r2, r3, r4, r5, r7, r8, r9, fp, pc}
 80001c8:	08008bbd 	stmdaeq	r0, {r0, r2, r3, r4, r5, r7, r8, r9, fp, pc}
 80001cc:	08008bbd 	stmdaeq	r0, {r0, r2, r3, r4, r5, r7, r8, r9, fp, pc}
 80001d0:	08008bbd 	stmdaeq	r0, {r0, r2, r3, r4, r5, r7, r8, r9, fp, pc}
 80001d4:	08008bbd 	stmdaeq	r0, {r0, r2, r3, r4, r5, r7, r8, r9, fp, pc}

Disassembly of section .text:

080001d8 <deregister_tm_clones>:
 80001d8:	4803      	ldr	r0, [pc, #12]	@ (80001e8 <deregister_tm_clones+0x10>)
 80001da:	4b04      	ldr	r3, [pc, #16]	@ (80001ec <deregister_tm_clones+0x14>)
 80001dc:	4283      	cmp	r3, r0
 80001de:	d002      	beq.n	80001e6 <deregister_tm_clones+0xe>
 80001e0:	4b03      	ldr	r3, [pc, #12]	@ (80001f0 <deregister_tm_clones+0x18>)
 80001e2:	b103      	cbz	r3, 80001e6 <deregister_tm_clones+0xe>
 80001e4:	4718      	bx	r3
 80001e6:	4770      	bx	lr
 80001e8:	200000e0 	andcs	r0, r0, r0, ror #1
 80001ec:	200000e0 	andcs	r0, r0, r0, ror #1
 80001f0:	00000000 	andeq	r0, r0, r0

080001f4 <register_tm_clones>:
 80001f4:	4805      	ldr	r0, [pc, #20]	@ (800020c <register_tm_clones+0x18>)
 80001f6:	4906      	ldr	r1, [pc, #24]	@ (8000210 <register_tm_clones+0x1c>)
 80001f8:	1a0b      	subs	r3, r1, r0
 80001fa:	0fd9      	lsrs	r1, r3, #31
 80001fc:	eb01 01a3 	add.w	r1, r1, r3, asr #2
 8000200:	1049      	asrs	r1, r1, #1
 8000202:	d002      	beq.n	800020a <register_tm_clones+0x16>
 8000204:	4b03      	ldr	r3, [pc, #12]	@ (8000214 <register_tm_clones+0x20>)
 8000206:	b103      	cbz	r3, 800020a <register_tm_clones+0x16>
 8000208:	4718      	bx	r3
 800020a:	4770      	bx	lr
 800020c:	200000e0 	andcs	r0, r0, r0, ror #1
 8000210:	200000e0 	andcs	r0, r0, r0, ror #1
 8000214:	00000000 	andeq	r0, r0, r0

08000218 <__do_global_dtors_aux>:
 8000218:	b510      	push	{r4, lr}
 800021a:	4c06      	ldr	r4, [pc, #24]	@ (8000234 <__do_global_dtors_aux+0x1c>)
 800021c:	7823      	ldrb	r3, [r4, #0]
 800021e:	b943      	cbnz	r3, 8000232 <__do_global_dtors_aux+0x1a>
 8000220:	f7ff ffda 	bl	80001d8 <deregister_tm_clones>
 8000224:	4b04      	ldr	r3, [pc, #16]	@ (8000238 <__do_global_dtors_aux+0x20>)
 8000226:	b113      	cbz	r3, 800022e <__do_global_dtors_aux+0x16>
 8000228:	4804      	ldr	r0, [pc, #16]	@ (800023c <__do_global_dtors_aux+0x24>)
 800022a:	f3af 8000 	nop.w
 800022e:	2301      	movs	r3, #1
 8000230:	7023      	strb	r3, [r4, #0]
 8000232:	bd10      	pop	{r4, pc}
 8000234:	200000e0 	andcs	r0, r0, r0, ror #1
 8000238:	00000000 	andeq	r0, r0, r0
 800023c:	08008bc0 	stmdaeq	r0, {r6, r7, r8, r9, fp, pc}

08000240 <frame_dummy>:
 8000240:	b508      	push	{r3, lr}
 8000242:	4b04      	ldr	r3, [pc, #16]	@ (8000254 <frame_dummy+0x14>)
 8000244:	b11b      	cbz	r3, 800024e <frame_dummy+0xe>
 8000246:	4904      	ldr	r1, [pc, #16]	@ (8000258 <frame_dummy+0x18>)
 8000248:	4804      	ldr	r0, [pc, #16]	@ (800025c <frame_dummy+0x1c>)
 800024a:	f3af 8000 	nop.w
 800024e:	e8bd 4008 	ldmia.w	sp!, {r3, lr}
 8000252:	e7cf      	b.n	80001f4 <register_tm_clones>
 8000254:	00000000 	andeq	r0, r0, r0
 8000258:	200000e4 	andcs	r0, r0, r4, ror #1
 800025c:	08008bc0 	stmdaeq	r0, {r6, r7, r8, r9, fp, pc}

08000260 <CPU_IntDis>:
 8000260:	b672      	cpsid	i
 8000262:	4770      	bx	lr

08000264 <CPU_IntEn>:
 8000264:	b662      	cpsie	i
 8000266:	4770      	bx	lr

08000268 <CPU_SR_Save>:
 8000268:	f3ef 8010 	mrs	r0, PRIMASK
 800026c:	b672      	cpsid	i
 800026e:	4770      	bx	lr

08000270 <CPU_SR_Restore>:
 8000270:	f380 8810 	msr	PRIMASK, r0
 8000274:	4770      	bx	lr

08000276 <CPU_WaitForInt>:
 8000276:	bf30      	wfi
 8000278:	4770      	bx	lr

0800027a <CPU_WaitForExcept>:
 800027a:	bf20      	wfe
 800027c:	4770      	bx	lr

0800027e <CPU_CntLeadZeros>:
 800027e:	fab0 f080 	clz	r0, r0
 8000282:	4770      	bx	lr

08000284 <CPU_CntTrailZeros>:
 8000284:	fa90 f0a0 	rbit	r0, r0
 8000288:	fab0 f080 	clz	r0, r0
 800028c:	4770      	bx	lr

0800028e <CPU_RevBits>:
 800028e:	fa90 f0a0 	rbit	r0, r0
 8000292:	4770      	bx	lr

08000294 <OSStartHighRdy>:
 8000294:	b672      	cpsid	i
 8000296:	f64e 5022 	movw	r0, #60706	@ 0xed22
 800029a:	f2ce 0000 	movt	r0, #57344	@ 0xe000
 800029e:	f240 01ff 	movw	r1, #255	@ 0xff
 80002a2:	f2c0 0100 	movt	r1, #0
 80002a6:	7001      	strb	r1, [r0, #0]
 80002a8:	f04f 0000 	mov.w	r0, #0
 80002ac:	f380 8809 	msr	PSP, r0
 80002b0:	f007 fb32 	bl	8007918 <OSTaskSwHook>
 80002b4:	f245 700c 	movw	r0, #22284	@ 0x570c
 80002b8:	f2c2 0000 	movt	r0, #8192	@ 0x2000
 80002bc:	6801      	ldr	r1, [r0, #0]
 80002be:	f381 8808 	msr	MSP, r1
 80002c2:	f245 2086 	movw	r0, #21126	@ 0x5286
 80002c6:	f2c2 0000 	movt	r0, #8192	@ 0x2000
 80002ca:	f245 2187 	movw	r1, #21127	@ 0x5287
 80002ce:	f2c2 0100 	movt	r1, #8192	@ 0x2000
 80002d2:	780a      	ldrb	r2, [r1, #0]
 80002d4:	7002      	strb	r2, [r0, #0]
 80002d6:	f245 45f8 	movw	r5, #21752	@ 0x54f8
 80002da:	f2c2 0500 	movt	r5, #8192	@ 0x2000
 80002de:	f245 41fc 	movw	r1, #21756	@ 0x54fc
 80002e2:	f2c2 0100 	movt	r1, #8192	@ 0x2000
 80002e6:	680a      	ldr	r2, [r1, #0]
 80002e8:	602a      	str	r2, [r5, #0]
 80002ea:	6810      	ldr	r0, [r2, #0]
 80002ec:	f380 8809 	msr	PSP, r0
 80002f0:	f3ef 8014 	mrs	r0, CONTROL
 80002f4:	f040 0002 	orr.w	r0, r0, #2
 80002f8:	f380 8814 	msr	CONTROL, r0
 80002fc:	f3bf 8f6f 	isb	sy
 8000300:	e8bd 0ff0 	ldmia.w	sp!, {r4, r5, r6, r7, r8, r9, sl, fp}
 8000304:	bc0f      	pop	{r0, r1, r2, r3}
 8000306:	e8bd 5000 	ldmia.w	sp!, {ip, lr}
 800030a:	bc06      	pop	{r1, r2}
 800030c:	b662      	cpsie	i
 800030e:	4708      	bx	r1

08000310 <OSCtxSw>:
 8000310:	4818      	ldr	r0, [pc, #96]	@ (8000374 <PendSV_Handler+0x50>)
 8000312:	f04f 5180 	mov.w	r1, #268435456	@ 0x10000000
 8000316:	6001      	str	r1, [r0, #0]
 8000318:	4770      	bx	lr

0800031a <OSIntCtxSw>:
 800031a:	4816      	ldr	r0, [pc, #88]	@ (8000374 <PendSV_Handler+0x50>)
 800031c:	f04f 5180 	mov.w	r1, #268435456	@ 0x10000000
 8000320:	6001      	str	r1, [r0, #0]
 8000322:	4770      	bx	lr

08000324 <PendSV_Handler>:
 8000324:	b672      	cpsid	i
 8000326:	f3ef 8009 	mrs	r0, PSP
 800032a:	e920 0ff0 	stmdb	r0!, {r4, r5, r6, r7, r8, r9, sl, fp}
 800032e:	f245 45f8 	movw	r5, #21752	@ 0x54f8
 8000332:	f2c2 0500 	movt	r5, #8192	@ 0x2000
 8000336:	682e      	ldr	r6, [r5, #0]
 8000338:	6030      	str	r0, [r6, #0]
 800033a:	4674      	mov	r4, lr
 800033c:	f007 faec 	bl	8007918 <OSTaskSwHook>
 8000340:	f245 2086 	movw	r0, #21126	@ 0x5286
 8000344:	f2c2 0000 	movt	r0, #8192	@ 0x2000
 8000348:	f245 2187 	movw	r1, #21127	@ 0x5287
 800034c:	f2c2 0100 	movt	r1, #8192	@ 0x2000
 8000350:	780a      	ldrb	r2, [r1, #0]
 8000352:	7002      	strb	r2, [r0, #0]
 8000354:	f245 41fc 	movw	r1, #21756	@ 0x54fc
 8000358:	f2c2 0100 	movt	r1, #8192	@ 0x2000
 800035c:	680a      	ldr	r2, [r1, #0]
 800035e:	602a      	str	r2, [r5, #0]
 8000360:	f044 0ef4 	orr.w	lr, r4, #244	@ 0xf4
 8000364:	6810      	ldr	r0, [r2, #0]
 8000366:	e8b0 0ff0 	ldmia.w	r0!, {r4, r5, r6, r7, r8, r9, sl, fp}
 800036a:	f380 8809 	msr	PSP, r0
 800036e:	b662      	cpsie	i
 8000370:	4770      	bx	lr
 8000372:	ed040000 	stc	0, cr0, [r4, #-0]
 8000376:	 	ldrblt	lr, [r0, #-0]!

08000378 <__libc_init_array>:
 8000378:	b570      	push	{r4, r5, r6, lr}
 800037a:	4e0d      	ldr	r6, [pc, #52]	@ (80003b0 <__libc_init_array+0x38>)
 800037c:	4d0d      	ldr	r5, [pc, #52]	@ (80003b4 <__libc_init_array+0x3c>)
 800037e:	1b76      	subs	r6, r6, r5
 8000380:	10b6      	asrs	r6, r6, #2
 8000382:	d006      	beq.n	8000392 <__libc_init_array+0x1a>
 8000384:	2400      	movs	r4, #0
 8000386:	f855 3b04 	ldr.w	r3, [r5], #4
 800038a:	3401      	adds	r4, #1
 800038c:	4798      	blx	r3
 800038e:	42a6      	cmp	r6, r4
 8000390:	d1f9      	bne.n	8000386 <__libc_init_array+0xe>
 8000392:	4e09      	ldr	r6, [pc, #36]	@ (80003b8 <__libc_init_array+0x40>)
 8000394:	4d09      	ldr	r5, [pc, #36]	@ (80003bc <__libc_init_array+0x44>)
 8000396:	1b76      	subs	r6, r6, r5
 8000398:	f008 fc12 	bl	8008bc0 <_init>
 800039c:	10b6      	asrs	r6, r6, #2
 800039e:	d006      	beq.n	80003ae <__libc_init_array+0x36>
 80003a0:	2400      	movs	r4, #0
 80003a2:	f855 3b04 	ldr.w	r3, [r5], #4
 80003a6:	3401      	adds	r4, #1
 80003a8:	4798      	blx	r3
 80003aa:	42a6      	cmp	r6, r4
 80003ac:	d1f9      	bne.n	80003a2 <__libc_init_array+0x2a>
 80003ae:	bd70      	pop	{r4, r5, r6, pc}
 80003b0:	0800d6bc 	stmdaeq	r0, {r2, r3, r4, r5, r7, r9, sl, ip, lr, pc}
 80003b4:	0800d6bc 	stmdaeq	r0, {r2, r3, r4, r5, r7, r9, sl, ip, lr, pc}
 80003b8:	0800d6c0 	stmdaeq	r0, {r6, r7, r9, sl, ip, lr, pc}
 80003bc:	0800d6bc 	stmdaeq	r0, {r2, r3, r4, r5, r7, r9, sl, ip, lr, pc}

080003c0 <memcpy>:
 80003c0:	4684      	mov	ip, r0
 80003c2:	ea41 0300 	orr.w	r3, r1, r0
 80003c6:	f013 0303 	ands.w	r3, r3, #3
 80003ca:	d16d      	bne.n	80004a8 <memcpy+0xe8>
 80003cc:	3a40      	subs	r2, #64	@ 0x40
 80003ce:	d341      	bcc.n	8000454 <memcpy+0x94>
 80003d0:	f851 3b04 	ldr.w	r3, [r1], #4
 80003d4:	f840 3b04 	str.w	r3, [r0], #4
 80003d8:	f851 3b04 	ldr.w	r3, [r1], #4
 80003dc:	f840 3b04 	str.w	r3, [r0], #4
 80003e0:	f851 3b04 	ldr.w	r3, [r1], #4
 80003e4:	f840 3b04 	str.w	r3, [r0], #4
 80003e8:	f851 3b04 	ldr.w	r3, [r1], #4
 80003ec:	f840 3b04 	str.w	r3, [r0], #4
 80003f0:	f851 3b04 	ldr.w	r3, [r1], #4
 80003f4:	f840 3b04 	str.w	r3, [r0], #4
 80003f8:	f851 3b04 	ldr.w	r3, [r1], #4
 80003fc:	f840 3b04 	str.w	r3, [r0], #4
 8000400:	f851 3b04 	ldr.w	r3, [r1], #4
 8000404:	f840 3b04 	str.w	r3, [r0], #4
 8000408:	f851 3b04 	ldr.w	r3, [r1], #4
 800040c:	f840 3b04 	str.w	r3, [r0], #4
 8000410:	f851 3b04 	ldr.w	r3, [r1], #4
 8000414:	f840 3b04 	str.w	r3, [r0], #4
 8000418:	f851 3b04 	ldr.w	r3, [r1], #4
 800041c:	f840 3b04 	str.w	r3, [r0], #4
 8000420:	f851 3b04 	ldr.w	r3, [r1], #4
 8000424:	f840 3b04 	str.w	r3, [r0], #4
 8000428:	f851 3b04 	ldr.w	r3, [r1], #4
 800042c:	f840 3b04 	str.w	r3, [r0], #4
 8000430:	f851 3b04 	ldr.w	r3, [r1], #4
 8000434:	f840 3b04 	str.w	r3, [r0], #4
 8000438:	f851 3b04 	ldr.w	r3, [r1], #4
 800043c:	f840 3b04 	str.w	r3, [r0], #4
 8000440:	f851 3b04 	ldr.w	r3, [r1], #4
 8000444:	f840 3b04 	str.w	r3, [r0], #4
 8000448:	f851 3b04 	ldr.w	r3, [r1], #4
 800044c:	f840 3b04 	str.w	r3, [r0], #4
 8000450:	3a40      	subs	r2, #64	@ 0x40
 8000452:	d2bd      	bcs.n	80003d0 <memcpy+0x10>
 8000454:	3230      	adds	r2, #48	@ 0x30
 8000456:	d311      	bcc.n	800047c <memcpy+0xbc>
 8000458:	f851 3b04 	ldr.w	r3, [r1], #4
 800045c:	f840 3b04 	str.w	r3, [r0], #4
 8000460:	f851 3b04 	ldr.w	r3, [r1], #4
 8000464:	f840 3b04 	str.w	r3, [r0], #4
 8000468:	f851 3b04 	ldr.w	r3, [r1], #4
 800046c:	f840 3b04 	str.w	r3, [r0], #4
 8000470:	f851 3b04 	ldr.w	r3, [r1], #4
 8000474:	f840 3b04 	str.w	r3, [r0], #4
 8000478:	3a10      	subs	r2, #16
 800047a:	d2ed      	bcs.n	8000458 <memcpy+0x98>
 800047c:	320c      	adds	r2, #12
 800047e:	d305      	bcc.n	800048c <memcpy+0xcc>
 8000480:	f851 3b04 	ldr.w	r3, [r1], #4
 8000484:	f840 3b04 	str.w	r3, [r0], #4
 8000488:	3a04      	subs	r2, #4
 800048a:	d2f9      	bcs.n	8000480 <memcpy+0xc0>
 800048c:	3204      	adds	r2, #4
 800048e:	d008      	beq.n	80004a2 <memcpy+0xe2>
 8000490:	07d2      	lsls	r2, r2, #31
 8000492:	bf1c      	itt	ne
 8000494:	f811 3b01 	ldrbne.w	r3, [r1], #1
 8000498:	f800 3b01 	strbne.w	r3, [r0], #1
 800049c:	d301      	bcc.n	80004a2 <memcpy+0xe2>
 800049e:	880b      	ldrh	r3, [r1, #0]
 80004a0:	8003      	strh	r3, [r0, #0]
 80004a2:	4660      	mov	r0, ip
 80004a4:	4770      	bx	lr
 80004a6:	bf00      	nop
 80004a8:	2a08      	cmp	r2, #8
 80004aa:	d313      	bcc.n	80004d4 <memcpy+0x114>
 80004ac:	078b      	lsls	r3, r1, #30
 80004ae:	d08d      	beq.n	80003cc <memcpy+0xc>
 80004b0:	f010 0303 	ands.w	r3, r0, #3
 80004b4:	d08a      	beq.n	80003cc <memcpy+0xc>
 80004b6:	f1c3 0304 	rsb	r3, r3, #4
 80004ba:	1ad2      	subs	r2, r2, r3
 80004bc:	07db      	lsls	r3, r3, #31
 80004be:	bf1c      	itt	ne
 80004c0:	f811 3b01 	ldrbne.w	r3, [r1], #1
 80004c4:	f800 3b01 	strbne.w	r3, [r0], #1
 80004c8:	d380      	bcc.n	80003cc <memcpy+0xc>
 80004ca:	f831 3b02 	ldrh.w	r3, [r1], #2
 80004ce:	f820 3b02 	strh.w	r3, [r0], #2
 80004d2:	e77b      	b.n	80003cc <memcpy+0xc>
 80004d4:	3a04      	subs	r2, #4
 80004d6:	d3d9      	bcc.n	800048c <memcpy+0xcc>
 80004d8:	3a01      	subs	r2, #1
 80004da:	f811 3b01 	ldrb.w	r3, [r1], #1
 80004de:	f800 3b01 	strb.w	r3, [r0], #1
 80004e2:	d2f9      	bcs.n	80004d8 <memcpy+0x118>
 80004e4:	780b      	ldrb	r3, [r1, #0]
 80004e6:	7003      	strb	r3, [r0, #0]
 80004e8:	784b      	ldrb	r3, [r1, #1]
 80004ea:	7043      	strb	r3, [r0, #1]
 80004ec:	788b      	ldrb	r3, [r1, #2]
 80004ee:	7083      	strb	r3, [r0, #2]
 80004f0:	4660      	mov	r0, ip
 80004f2:	4770      	bx	lr

080004f4 <memset>:
 80004f4:	0783      	lsls	r3, r0, #30
 80004f6:	b530      	push	{r4, r5, lr}
 80004f8:	d048      	beq.n	800058c <memset+0x98>
 80004fa:	1e54      	subs	r4, r2, #1
 80004fc:	2a00      	cmp	r2, #0
 80004fe:	d03f      	beq.n	8000580 <memset+0x8c>
 8000500:	b2ca      	uxtb	r2, r1
 8000502:	4603      	mov	r3, r0
 8000504:	e001      	b.n	800050a <memset+0x16>
 8000506:	3c01      	subs	r4, #1
 8000508:	d33a      	bcc.n	8000580 <memset+0x8c>
 800050a:	f803 2b01 	strb.w	r2, [r3], #1
 800050e:	079d      	lsls	r5, r3, #30
 8000510:	d1f9      	bne.n	8000506 <memset+0x12>
 8000512:	2c03      	cmp	r4, #3
 8000514:	d92d      	bls.n	8000572 <memset+0x7e>
 8000516:	b2cd      	uxtb	r5, r1
 8000518:	ea45 2505 	orr.w	r5, r5, r5, lsl #8
 800051c:	2c0f      	cmp	r4, #15
 800051e:	ea45 4505 	orr.w	r5, r5, r5, lsl #16
 8000522:	d936      	bls.n	8000592 <memset+0x9e>
 8000524:	f1a4 0210 	sub.w	r2, r4, #16
 8000528:	f022 0c0f 	bic.w	ip, r2, #15
 800052c:	f103 0e20 	add.w	lr, r3, #32
 8000530:	44e6      	add	lr, ip
 8000532:	ea4f 1c12 	mov.w	ip, r2, lsr #4
 8000536:	f103 0210 	add.w	r2, r3, #16
 800053a:	e942 5504 	strd	r5, r5, [r2, #-16]
 800053e:	e942 5502 	strd	r5, r5, [r2, #-8]
 8000542:	3210      	adds	r2, #16
 8000544:	4572      	cmp	r2, lr
 8000546:	d1f8      	bne.n	800053a <memset+0x46>
 8000548:	f10c 0201 	add.w	r2, ip, #1
 800054c:	f014 0f0c 	tst.w	r4, #12
 8000550:	eb03 1202 	add.w	r2, r3, r2, lsl #4
 8000554:	f004 0c0f 	and.w	ip, r4, #15
 8000558:	d013      	beq.n	8000582 <memset+0x8e>
 800055a:	f1ac 0304 	sub.w	r3, ip, #4
 800055e:	f023 0303 	bic.w	r3, r3, #3
 8000562:	3304      	adds	r3, #4
 8000564:	4413      	add	r3, r2
 8000566:	f842 5b04 	str.w	r5, [r2], #4
 800056a:	4293      	cmp	r3, r2
 800056c:	d1fb      	bne.n	8000566 <memset+0x72>
 800056e:	f00c 0403 	and.w	r4, ip, #3
 8000572:	b12c      	cbz	r4, 8000580 <memset+0x8c>
 8000574:	b2ca      	uxtb	r2, r1
 8000576:	441c      	add	r4, r3
 8000578:	f803 2b01 	strb.w	r2, [r3], #1
 800057c:	429c      	cmp	r4, r3
 800057e:	d1fb      	bne.n	8000578 <memset+0x84>
 8000580:	bd30      	pop	{r4, r5, pc}
 8000582:	4664      	mov	r4, ip
 8000584:	4613      	mov	r3, r2
 8000586:	2c00      	cmp	r4, #0
 8000588:	d1f4      	bne.n	8000574 <memset+0x80>
 800058a:	e7f9      	b.n	8000580 <memset+0x8c>
 800058c:	4603      	mov	r3, r0
 800058e:	4614      	mov	r4, r2
 8000590:	e7bf      	b.n	8000512 <memset+0x1e>
 8000592:	461a      	mov	r2, r3
 8000594:	46a4      	mov	ip, r4
 8000596:	e7e0      	b.n	800055a <memset+0x66>

08000598 <setvbuf>:
 8000598:	e92d 43f0 	stmdb	sp!, {r4, r5, r6, r7, r8, r9, lr}
 800059c:	4c5a      	ldr	r4, [pc, #360]	@ (8000708 <setvbuf+0x170>)
 800059e:	6827      	ldr	r7, [r4, #0]
 80005a0:	b083      	sub	sp, #12
 80005a2:	4604      	mov	r4, r0
 80005a4:	460e      	mov	r6, r1
 80005a6:	4690      	mov	r8, r2
 80005a8:	461d      	mov	r5, r3
 80005aa:	b117      	cbz	r7, 80005b2 <setvbuf+0x1a>
 80005ac:	69bb      	ldr	r3, [r7, #24]
 80005ae:	2b00      	cmp	r3, #0
 80005b0:	d064      	beq.n	800067c <setvbuf+0xe4>
 80005b2:	4b56      	ldr	r3, [pc, #344]	@ (800070c <setvbuf+0x174>)
 80005b4:	429c      	cmp	r4, r3
 80005b6:	d067      	beq.n	8000688 <setvbuf+0xf0>
 80005b8:	4b55      	ldr	r3, [pc, #340]	@ (8000710 <setvbuf+0x178>)
 80005ba:	429c      	cmp	r4, r3
 80005bc:	d066      	beq.n	800068c <setvbuf+0xf4>
 80005be:	4b55      	ldr	r3, [pc, #340]	@ (8000714 <setvbuf+0x17c>)
 80005c0:	429c      	cmp	r4, r3
 80005c2:	bf08      	it	eq
 80005c4:	68fc      	ldreq	r4, [r7, #12]
 80005c6:	f1b8 0f02 	cmp.w	r8, #2
 80005ca:	d006      	beq.n	80005da <setvbuf+0x42>
 80005cc:	f1b8 0f01 	cmp.w	r8, #1
 80005d0:	f200 8086 	bhi.w	80006e0 <setvbuf+0x148>
 80005d4:	2d00      	cmp	r5, #0
 80005d6:	f2c0 8083 	blt.w	80006e0 <setvbuf+0x148>
 80005da:	4621      	mov	r1, r4
 80005dc:	4638      	mov	r0, r7
 80005de:	f000 f91d 	bl	800081c <_fflush_r>
 80005e2:	6b61      	ldr	r1, [r4, #52]	@ 0x34
 80005e4:	b141      	cbz	r1, 80005f8 <setvbuf+0x60>
 80005e6:	f104 0344 	add.w	r3, r4, #68	@ 0x44
 80005ea:	4299      	cmp	r1, r3
 80005ec:	d002      	beq.n	80005f4 <setvbuf+0x5c>
 80005ee:	4638      	mov	r0, r7
 80005f0:	f000 fb7c 	bl	8000cec <_free_r>
 80005f4:	2300      	movs	r3, #0
 80005f6:	6363      	str	r3, [r4, #52]	@ 0x34
 80005f8:	f9b4 c00c 	ldrsh.w	ip, [r4, #12]
 80005fc:	2300      	movs	r3, #0
 80005fe:	f01c 0f80 	tst.w	ip, #128	@ 0x80
 8000602:	61a3      	str	r3, [r4, #24]
 8000604:	6063      	str	r3, [r4, #4]
 8000606:	d150      	bne.n	80006aa <setvbuf+0x112>
 8000608:	f42c 6c4a 	bic.w	ip, ip, #3232	@ 0xca0
 800060c:	f02c 0c03 	bic.w	ip, ip, #3
 8000610:	f1b8 0f02 	cmp.w	r8, #2
 8000614:	f8a4 c00c 	strh.w	ip, [r4, #12]
 8000618:	d04e      	beq.n	80006b8 <setvbuf+0x120>
 800061a:	ab01      	add	r3, sp, #4
 800061c:	466a      	mov	r2, sp
 800061e:	4621      	mov	r1, r4
 8000620:	4638      	mov	r0, r7
 8000622:	f000 fb25 	bl	8000c70 <__swhatbuf_r>
 8000626:	89a3      	ldrh	r3, [r4, #12]
 8000628:	4318      	orrs	r0, r3
 800062a:	81a0      	strh	r0, [r4, #12]
 800062c:	2d00      	cmp	r5, #0
 800062e:	d12f      	bne.n	8000690 <setvbuf+0xf8>
 8000630:	9d00      	ldr	r5, [sp, #0]
 8000632:	4628      	mov	r0, r5
 8000634:	f000 fb4a 	bl	8000ccc <malloc>
 8000638:	4606      	mov	r6, r0
 800063a:	2800      	cmp	r0, #0
 800063c:	d053      	beq.n	80006e6 <setvbuf+0x14e>
 800063e:	89a3      	ldrh	r3, [r4, #12]
 8000640:	f043 0380 	orr.w	r3, r3, #128	@ 0x80
 8000644:	81a3      	strh	r3, [r4, #12]
 8000646:	69bb      	ldr	r3, [r7, #24]
 8000648:	b33b      	cbz	r3, 800069a <setvbuf+0x102>
 800064a:	f9b4 200c 	ldrsh.w	r2, [r4, #12]
 800064e:	6026      	str	r6, [r4, #0]
 8000650:	f1b8 0f01 	cmp.w	r8, #1
 8000654:	bf04      	itt	eq
 8000656:	f042 0201 	orreq.w	r2, r2, #1
 800065a:	81a2      	strheq	r2, [r4, #12]
 800065c:	f012 0008 	ands.w	r0, r2, #8
 8000660:	e9c4 6504 	strd	r6, r5, [r4, #16]
 8000664:	b293      	uxth	r3, r2
 8000666:	d01c      	beq.n	80006a2 <setvbuf+0x10a>
 8000668:	f013 0001 	ands.w	r0, r3, #1
 800066c:	d034      	beq.n	80006d8 <setvbuf+0x140>
 800066e:	2000      	movs	r0, #0
 8000670:	426d      	negs	r5, r5
 8000672:	60a0      	str	r0, [r4, #8]
 8000674:	61a5      	str	r5, [r4, #24]
 8000676:	b003      	add	sp, #12
 8000678:	e8bd 83f0 	ldmia.w	sp!, {r4, r5, r6, r7, r8, r9, pc}
 800067c:	4638      	mov	r0, r7
 800067e:	f000 fa33 	bl	8000ae8 <__sinit>
 8000682:	4b22      	ldr	r3, [pc, #136]	@ (800070c <setvbuf+0x174>)
 8000684:	429c      	cmp	r4, r3
 8000686:	d197      	bne.n	80005b8 <setvbuf+0x20>
 8000688:	687c      	ldr	r4, [r7, #4]
 800068a:	e79c      	b.n	80005c6 <setvbuf+0x2e>
 800068c:	68bc      	ldr	r4, [r7, #8]
 800068e:	e79a      	b.n	80005c6 <setvbuf+0x2e>
 8000690:	2e00      	cmp	r6, #0
 8000692:	d0ce      	beq.n	8000632 <setvbuf+0x9a>
 8000694:	69bb      	ldr	r3, [r7, #24]
 8000696:	2b00      	cmp	r3, #0
 8000698:	d1d7      	bne.n	800064a <setvbuf+0xb2>
 800069a:	4638      	mov	r0, r7
 800069c:	f000 fa24 	bl	8000ae8 <__sinit>
 80006a0:	e7d3      	b.n	800064a <setvbuf+0xb2>
 80006a2:	60a0      	str	r0, [r4, #8]
 80006a4:	b003      	add	sp, #12
 80006a6:	e8bd 83f0 	ldmia.w	sp!, {r4, r5, r6, r7, r8, r9, pc}
 80006aa:	6921      	ldr	r1, [r4, #16]
 80006ac:	4638      	mov	r0, r7
 80006ae:	f000 fb1d 	bl	8000cec <_free_r>
 80006b2:	f9b4 c00c 	ldrsh.w	ip, [r4, #12]
 80006b6:	e7a7      	b.n	8000608 <setvbuf+0x70>
 80006b8:	2000      	movs	r0, #0
 80006ba:	f104 0347 	add.w	r3, r4, #71	@ 0x47
 80006be:	f04c 0c02 	orr.w	ip, ip, #2
 80006c2:	2100      	movs	r1, #0
 80006c4:	2201      	movs	r2, #1
 80006c6:	e9c4 3204 	strd	r3, r2, [r4, #16]
 80006ca:	f8a4 c00c 	strh.w	ip, [r4, #12]
 80006ce:	60a1      	str	r1, [r4, #8]
 80006d0:	6023      	str	r3, [r4, #0]
 80006d2:	b003      	add	sp, #12
 80006d4:	e8bd 83f0 	ldmia.w	sp!, {r4, r5, r6, r7, r8, r9, pc}
 80006d8:	60a5      	str	r5, [r4, #8]
 80006da:	b003      	add	sp, #12
 80006dc:	e8bd 83f0 	ldmia.w	sp!, {r4, r5, r6, r7, r8, r9, pc}
 80006e0:	f04f 30ff 	mov.w	r0, #4294967295	@ 0xffffffff
 80006e4:	e7de      	b.n	80006a4 <setvbuf+0x10c>
 80006e6:	f8dd 9000 	ldr.w	r9, [sp]
 80006ea:	45a9      	cmp	r9, r5
 80006ec:	d004      	beq.n	80006f8 <setvbuf+0x160>
 80006ee:	4648      	mov	r0, r9
 80006f0:	f000 faec 	bl	8000ccc <malloc>
 80006f4:	4606      	mov	r6, r0
 80006f6:	b920      	cbnz	r0, 8000702 <setvbuf+0x16a>
 80006f8:	f9b4 c00c 	ldrsh.w	ip, [r4, #12]
 80006fc:	f04f 30ff 	mov.w	r0, #4294967295	@ 0xffffffff
 8000700:	e7db      	b.n	80006ba <setvbuf+0x122>
 8000702:	464d      	mov	r5, r9
 8000704:	e79b      	b.n	800063e <setvbuf+0xa6>
 8000706:	bf00      	nop
 8000708:	20000000 	andcs	r0, r0, r0
 800070c:	08008c20 	stmdaeq	r0, {r5, sl, fp, pc}
 8000710:	08008c00 	stmdaeq	r0, {sl, fp, pc}
 8000714:	08008be0 	stmdaeq	r0, {r5, r6, r7, r8, r9, fp, pc}

08000718 <__sflush_r>:
 8000718:	b5f8      	push	{r3, r4, r5, r6, r7, lr}
 800071a:	898b      	ldrh	r3, [r1, #12]
 800071c:	460c      	mov	r4, r1
 800071e:	0719      	lsls	r1, r3, #28
 8000720:	4607      	mov	r7, r0
 8000722:	d43a      	bmi.n	800079a <__sflush_r+0x82>
 8000724:	6862      	ldr	r2, [r4, #4]
 8000726:	2a00      	cmp	r2, #0
 8000728:	dd53      	ble.n	80007d2 <__sflush_r+0xba>
 800072a:	6ae6      	ldr	r6, [r4, #44]	@ 0x2c
 800072c:	2e00      	cmp	r6, #0
 800072e:	d04e      	beq.n	80007ce <__sflush_r+0xb6>
 8000730:	2200      	movs	r2, #0
 8000732:	683d      	ldr	r5, [r7, #0]
 8000734:	603a      	str	r2, [r7, #0]
 8000736:	f413 5280 	ands.w	r2, r3, #4096	@ 0x1000
 800073a:	d14e      	bne.n	80007da <__sflush_r+0xc2>
 800073c:	6a21      	ldr	r1, [r4, #32]
 800073e:	2301      	movs	r3, #1
 8000740:	4638      	mov	r0, r7
 8000742:	47b0      	blx	r6
 8000744:	1c42      	adds	r2, r0, #1
 8000746:	d05a      	beq.n	80007fe <__sflush_r+0xe6>
 8000748:	89a3      	ldrh	r3, [r4, #12]
 800074a:	6ae6      	ldr	r6, [r4, #44]	@ 0x2c
 800074c:	075b      	lsls	r3, r3, #29
 800074e:	d505      	bpl.n	800075c <__sflush_r+0x44>
 8000750:	6863      	ldr	r3, [r4, #4]
 8000752:	1ac0      	subs	r0, r0, r3
 8000754:	6b63      	ldr	r3, [r4, #52]	@ 0x34
 8000756:	b10b      	cbz	r3, 800075c <__sflush_r+0x44>
 8000758:	6c23      	ldr	r3, [r4, #64]	@ 0x40
 800075a:	1ac0      	subs	r0, r0, r3
 800075c:	6a21      	ldr	r1, [r4, #32]
 800075e:	4602      	mov	r2, r0
 8000760:	2300      	movs	r3, #0
 8000762:	4638      	mov	r0, r7
 8000764:	47b0      	blx	r6
 8000766:	1c41      	adds	r1, r0, #1
 8000768:	d139      	bne.n	80007de <__sflush_r+0xc6>
 800076a:	683b      	ldr	r3, [r7, #0]
 800076c:	2b00      	cmp	r3, #0
 800076e:	d036      	beq.n	80007de <__sflush_r+0xc6>
 8000770:	2b1d      	cmp	r3, #29
 8000772:	d001      	beq.n	8000778 <__sflush_r+0x60>
 8000774:	2b16      	cmp	r3, #22
 8000776:	d149      	bne.n	800080c <__sflush_r+0xf4>
 8000778:	6923      	ldr	r3, [r4, #16]
 800077a:	2200      	movs	r2, #0
 800077c:	e9c4 3200 	strd	r3, r2, [r4]
 8000780:	6b61      	ldr	r1, [r4, #52]	@ 0x34
 8000782:	603d      	str	r5, [r7, #0]
 8000784:	b319      	cbz	r1, 80007ce <__sflush_r+0xb6>
 8000786:	f104 0344 	add.w	r3, r4, #68	@ 0x44
 800078a:	4299      	cmp	r1, r3
 800078c:	d002      	beq.n	8000794 <__sflush_r+0x7c>
 800078e:	4638      	mov	r0, r7
 8000790:	f000 faac 	bl	8000cec <_free_r>
 8000794:	2000      	movs	r0, #0
 8000796:	6360      	str	r0, [r4, #52]	@ 0x34
 8000798:	bdf8      	pop	{r3, r4, r5, r6, r7, pc}
 800079a:	6926      	ldr	r6, [r4, #16]
 800079c:	b1be      	cbz	r6, 80007ce <__sflush_r+0xb6>
 800079e:	6825      	ldr	r5, [r4, #0]
 80007a0:	6026      	str	r6, [r4, #0]
 80007a2:	079a      	lsls	r2, r3, #30
 80007a4:	bf0c      	ite	eq
 80007a6:	6963      	ldreq	r3, [r4, #20]
 80007a8:	2300      	movne	r3, #0
 80007aa:	1bad      	subs	r5, r5, r6
 80007ac:	60a3      	str	r3, [r4, #8]
 80007ae:	e00c      	b.n	80007ca <__sflush_r+0xb2>
 80007b0:	f8d4 c028 	ldr.w	ip, [r4, #40]	@ 0x28
 80007b4:	6a21      	ldr	r1, [r4, #32]
 80007b6:	462b      	mov	r3, r5
 80007b8:	4632      	mov	r2, r6
 80007ba:	4638      	mov	r0, r7
 80007bc:	47e0      	blx	ip
 80007be:	f1b0 0c00 	subs.w	ip, r0, #0
 80007c2:	eba5 050c 	sub.w	r5, r5, ip
 80007c6:	4466      	add	r6, ip
 80007c8:	dd12      	ble.n	80007f0 <__sflush_r+0xd8>
 80007ca:	2d00      	cmp	r5, #0
 80007cc:	dcf0      	bgt.n	80007b0 <__sflush_r+0x98>
 80007ce:	2000      	movs	r0, #0
 80007d0:	bdf8      	pop	{r3, r4, r5, r6, r7, pc}
 80007d2:	6c22      	ldr	r2, [r4, #64]	@ 0x40
 80007d4:	2a00      	cmp	r2, #0
 80007d6:	dca8      	bgt.n	800072a <__sflush_r+0x12>
 80007d8:	e7f9      	b.n	80007ce <__sflush_r+0xb6>
 80007da:	6d60      	ldr	r0, [r4, #84]	@ 0x54
 80007dc:	e7b6      	b.n	800074c <__sflush_r+0x34>
 80007de:	2300      	movs	r3, #0
 80007e0:	6063      	str	r3, [r4, #4]
 80007e2:	6923      	ldr	r3, [r4, #16]
 80007e4:	6023      	str	r3, [r4, #0]
 80007e6:	89a3      	ldrh	r3, [r4, #12]
 80007e8:	04db      	lsls	r3, r3, #19
 80007ea:	d5c9      	bpl.n	8000780 <__sflush_r+0x68>
 80007ec:	6560      	str	r0, [r4, #84]	@ 0x54
 80007ee:	e7c7      	b.n	8000780 <__sflush_r+0x68>
 80007f0:	89a3      	ldrh	r3, [r4, #12]
 80007f2:	f043 0340 	orr.w	r3, r3, #64	@ 0x40
 80007f6:	f04f 30ff 	mov.w	r0, #4294967295	@ 0xffffffff
 80007fa:	81a3      	strh	r3, [r4, #12]
 80007fc:	bdf8      	pop	{r3, r4, r5, r6, r7, pc}
 80007fe:	683b      	ldr	r3, [r7, #0]
 8000800:	2b00      	cmp	r3, #0
 8000802:	d0a1      	beq.n	8000748 <__sflush_r+0x30>
 8000804:	2b1d      	cmp	r3, #29
 8000806:	d006      	beq.n	8000816 <__sflush_r+0xfe>
 8000808:	2b16      	cmp	r3, #22
 800080a:	d004      	beq.n	8000816 <__sflush_r+0xfe>
 800080c:	89a3      	ldrh	r3, [r4, #12]
 800080e:	f043 0340 	orr.w	r3, r3, #64	@ 0x40
 8000812:	81a3      	strh	r3, [r4, #12]
 8000814:	bdf8      	pop	{r3, r4, r5, r6, r7, pc}
 8000816:	603d      	str	r5, [r7, #0]
 8000818:	e7d9      	b.n	80007ce <__sflush_r+0xb6>
 800081a:	bf00      	nop

0800081c <_fflush_r>:
 800081c:	b538      	push	{r3, r4, r5, lr}
 800081e:	690b      	ldr	r3, [r1, #16]
 8000820:	b1bb      	cbz	r3, 8000852 <_fflush_r+0x36>
 8000822:	460c      	mov	r4, r1
 8000824:	4605      	mov	r5, r0
 8000826:	b108      	cbz	r0, 800082c <_fflush_r+0x10>
 8000828:	6983      	ldr	r3, [r0, #24]
 800082a:	b1b3      	cbz	r3, 800085a <_fflush_r+0x3e>
 800082c:	4b0d      	ldr	r3, [pc, #52]	@ (8000864 <_fflush_r+0x48>)
 800082e:	429c      	cmp	r4, r3
 8000830:	d011      	beq.n	8000856 <_fflush_r+0x3a>
 8000832:	4b0d      	ldr	r3, [pc, #52]	@ (8000868 <_fflush_r+0x4c>)
 8000834:	429c      	cmp	r4, r3
 8000836:	d013      	beq.n	8000860 <_fflush_r+0x44>
 8000838:	4b0c      	ldr	r3, [pc, #48]	@ (800086c <_fflush_r+0x50>)
 800083a:	429c      	cmp	r4, r3
 800083c:	bf08      	it	eq
 800083e:	68ec      	ldreq	r4, [r5, #12]
 8000840:	f9b4 300c 	ldrsh.w	r3, [r4, #12]
 8000844:	b12b      	cbz	r3, 8000852 <_fflush_r+0x36>
 8000846:	4621      	mov	r1, r4
 8000848:	4628      	mov	r0, r5
 800084a:	e8bd 4038 	ldmia.w	sp!, {r3, r4, r5, lr}
 800084e:	f7ff bf63 	b.w	8000718 <__sflush_r>
 8000852:	2000      	movs	r0, #0
 8000854:	bd38      	pop	{r3, r4, r5, pc}
 8000856:	686c      	ldr	r4, [r5, #4]
 8000858:	e7f2      	b.n	8000840 <_fflush_r+0x24>
 800085a:	f000 f945 	bl	8000ae8 <__sinit>
 800085e:	e7e5      	b.n	800082c <_fflush_r+0x10>
 8000860:	68ac      	ldr	r4, [r5, #8]
 8000862:	e7ed      	b.n	8000840 <_fflush_r+0x24>
 8000864:	08008c20 	stmdaeq	r0, {r5, sl, fp, pc}
 8000868:	08008c00 	stmdaeq	r0, {sl, fp, pc}
 800086c:	08008be0 	stmdaeq	r0, {r5, r6, r7, r8, r9, fp, pc}

08000870 <fflush>:
 8000870:	b538      	push	{r3, r4, r5, lr}
 8000872:	b340      	cbz	r0, 80008c6 <fflush+0x56>
 8000874:	6903      	ldr	r3, [r0, #16]
 8000876:	4604      	mov	r4, r0
 8000878:	b1e3      	cbz	r3, 80008b4 <fflush+0x44>
 800087a:	4b17      	ldr	r3, [pc, #92]	@ (80008d8 <fflush+0x68>)
 800087c:	681d      	ldr	r5, [r3, #0]
 800087e:	b10d      	cbz	r5, 8000884 <fflush+0x14>
 8000880:	69ab      	ldr	r3, [r5, #24]
 8000882:	b1cb      	cbz	r3, 80008b8 <fflush+0x48>
 8000884:	4b15      	ldr	r3, [pc, #84]	@ (80008dc <fflush+0x6c>)
 8000886:	429c      	cmp	r4, r3
 8000888:	d00f      	beq.n	80008aa <fflush+0x3a>
 800088a:	4b15      	ldr	r3, [pc, #84]	@ (80008e0 <fflush+0x70>)
 800088c:	429c      	cmp	r4, r3
 800088e:	d021      	beq.n	80008d4 <fflush+0x64>
 8000890:	4b14      	ldr	r3, [pc, #80]	@ (80008e4 <fflush+0x74>)
 8000892:	429c      	cmp	r4, r3
 8000894:	bf08      	it	eq
 8000896:	68ec      	ldreq	r4, [r5, #12]
 8000898:	f9b4 300c 	ldrsh.w	r3, [r4, #12]
 800089c:	b153      	cbz	r3, 80008b4 <fflush+0x44>
 800089e:	4621      	mov	r1, r4
 80008a0:	4628      	mov	r0, r5
 80008a2:	e8bd 4038 	ldmia.w	sp!, {r3, r4, r5, lr}
 80008a6:	f7ff bf37 	b.w	8000718 <__sflush_r>
 80008aa:	686c      	ldr	r4, [r5, #4]
 80008ac:	f9b4 300c 	ldrsh.w	r3, [r4, #12]
 80008b0:	2b00      	cmp	r3, #0
 80008b2:	d1f4      	bne.n	800089e <fflush+0x2e>
 80008b4:	2000      	movs	r0, #0
 80008b6:	bd38      	pop	{r3, r4, r5, pc}
 80008b8:	4628      	mov	r0, r5
 80008ba:	f000 f915 	bl	8000ae8 <__sinit>
 80008be:	4b07      	ldr	r3, [pc, #28]	@ (80008dc <fflush+0x6c>)
 80008c0:	429c      	cmp	r4, r3
 80008c2:	d1e2      	bne.n	800088a <fflush+0x1a>
 80008c4:	e7f1      	b.n	80008aa <fflush+0x3a>
 80008c6:	4b08      	ldr	r3, [pc, #32]	@ (80008e8 <fflush+0x78>)
 80008c8:	4908      	ldr	r1, [pc, #32]	@ (80008ec <fflush+0x7c>)
 80008ca:	6818      	ldr	r0, [r3, #0]
 80008cc:	e8bd 4038 	ldmia.w	sp!, {r3, r4, r5, lr}
 80008d0:	f000 b94a 	b.w	8000b68 <_fwalk_reent>
 80008d4:	68ac      	ldr	r4, [r5, #8]
 80008d6:	e7df      	b.n	8000898 <fflush+0x28>
 80008d8:	20000000 	andcs	r0, r0, r0
 80008dc:	08008c20 	stmdaeq	r0, {r5, sl, fp, pc}
 80008e0:	08008c00 	stmdaeq	r0, {sl, fp, pc}
 80008e4:	08008be0 	stmdaeq	r0, {r5, r6, r7, r8, r9, fp, pc}
 80008e8:	08008bdc 	stmdaeq	r0, {r2, r3, r4, r6, r7, r8, r9, fp, pc}
 80008ec:	0800081d 	stmdaeq	r0, {r0, r2, r3, r4, fp}

080008f0 <__fp_lock>:
 80008f0:	2000      	movs	r0, #0
 80008f2:	4770      	bx	lr

080008f4 <_cleanup_r>:
 80008f4:	4901      	ldr	r1, [pc, #4]	@ (80008fc <_cleanup_r+0x8>)
 80008f6:	f000 b937 	b.w	8000b68 <_fwalk_reent>
 80008fa:	bf00      	nop
 80008fc:	0800081d 	stmdaeq	r0, {r0, r2, r3, r4, fp}

08000900 <__fp_unlock>:
 8000900:	2000      	movs	r0, #0
 8000902:	4770      	bx	lr

08000904 <__sfmoreglue>:
 8000904:	b570      	push	{r4, r5, r6, lr}
 8000906:	2268      	movs	r2, #104	@ 0x68
 8000908:	1e4d      	subs	r5, r1, #1
 800090a:	fb02 f505 	mul.w	r5, r2, r5
 800090e:	460e      	mov	r6, r1
 8000910:	f105 0174 	add.w	r1, r5, #116	@ 0x74
 8000914:	f000 fa48 	bl	8000da8 <_malloc_r>
 8000918:	4604      	mov	r4, r0
 800091a:	b140      	cbz	r0, 800092e <__sfmoreglue+0x2a>
 800091c:	2100      	movs	r1, #0
 800091e:	300c      	adds	r0, #12
 8000920:	e9c4 1600 	strd	r1, r6, [r4]
 8000924:	60a0      	str	r0, [r4, #8]
 8000926:	f105 0268 	add.w	r2, r5, #104	@ 0x68
 800092a:	f7ff fde3 	bl	80004f4 <memset>
 800092e:	4620      	mov	r0, r4
 8000930:	bd70      	pop	{r4, r5, r6, pc}
 8000932:	bf00      	nop

08000934 <__sfp>:
 8000934:	4b27      	ldr	r3, [pc, #156]	@ (80009d4 <__sfp+0xa0>)
 8000936:	e92d 41f0 	stmdb	sp!, {r4, r5, r6, r7, r8, lr}
 800093a:	681e      	ldr	r6, [r3, #0]
 800093c:	69b3      	ldr	r3, [r6, #24]
 800093e:	4607      	mov	r7, r0
 8000940:	b353      	cbz	r3, 8000998 <__sfp+0x64>
 8000942:	3648      	adds	r6, #72	@ 0x48
 8000944:	f04f 0804 	mov.w	r8, #4
 8000948:	e9d6 3401 	ldrd	r3, r4, [r6, #4]
 800094c:	3b01      	subs	r3, #1
 800094e:	d504      	bpl.n	800095a <__sfp+0x26>
 8000950:	e01e      	b.n	8000990 <__sfp+0x5c>
 8000952:	1c5a      	adds	r2, r3, #1
 8000954:	f104 0468 	add.w	r4, r4, #104	@ 0x68
 8000958:	d01a      	beq.n	8000990 <__sfp+0x5c>
 800095a:	f9b4 500c 	ldrsh.w	r5, [r4, #12]
 800095e:	3b01      	subs	r3, #1
 8000960:	2d00      	cmp	r5, #0
 8000962:	d1f6      	bne.n	8000952 <__sfp+0x1e>
 8000964:	4b1c      	ldr	r3, [pc, #112]	@ (80009d8 <__sfp+0xa4>)
 8000966:	6665      	str	r5, [r4, #100]	@ 0x64
 8000968:	e9c4 5500 	strd	r5, r5, [r4]
 800096c:	e9c4 5302 	strd	r5, r3, [r4, #8]
 8000970:	e9c4 5504 	strd	r5, r5, [r4, #16]
 8000974:	61a5      	str	r5, [r4, #24]
 8000976:	2208      	movs	r2, #8
 8000978:	4629      	mov	r1, r5
 800097a:	f104 005c 	add.w	r0, r4, #92	@ 0x5c
 800097e:	f7ff fdb9 	bl	80004f4 <memset>
 8000982:	e9c4 550d 	strd	r5, r5, [r4, #52]	@ 0x34
 8000986:	e9c4 5512 	strd	r5, r5, [r4, #72]	@ 0x48
 800098a:	4620      	mov	r0, r4
 800098c:	e8bd 81f0 	ldmia.w	sp!, {r4, r5, r6, r7, r8, pc}
 8000990:	6835      	ldr	r5, [r6, #0]
 8000992:	b12d      	cbz	r5, 80009a0 <__sfp+0x6c>
 8000994:	462e      	mov	r6, r5
 8000996:	e7d7      	b.n	8000948 <__sfp+0x14>
 8000998:	4630      	mov	r0, r6
 800099a:	f000 f81f 	bl	80009dc <__sinit.part.0>
 800099e:	e7d0      	b.n	8000942 <__sfp+0xe>
 80009a0:	f44f 71d6 	mov.w	r1, #428	@ 0x1ac
 80009a4:	4638      	mov	r0, r7
 80009a6:	f000 f9ff 	bl	8000da8 <_malloc_r>
 80009aa:	4604      	mov	r4, r0
 80009ac:	b168      	cbz	r0, 80009ca <__sfp+0x96>
 80009ae:	6005      	str	r5, [r0, #0]
 80009b0:	f8c0 8004 	str.w	r8, [r0, #4]
 80009b4:	300c      	adds	r0, #12
 80009b6:	4629      	mov	r1, r5
 80009b8:	60a0      	str	r0, [r4, #8]
 80009ba:	4625      	mov	r5, r4
 80009bc:	f44f 72d0 	mov.w	r2, #416	@ 0x1a0
 80009c0:	f7ff fd98 	bl	80004f4 <memset>
 80009c4:	6034      	str	r4, [r6, #0]
 80009c6:	462e      	mov	r6, r5
 80009c8:	e7be      	b.n	8000948 <__sfp+0x14>
 80009ca:	230c      	movs	r3, #12
 80009cc:	6030      	str	r0, [r6, #0]
 80009ce:	603b      	str	r3, [r7, #0]
 80009d0:	e7db      	b.n	800098a <__sfp+0x56>
 80009d2:	bf00      	nop
 80009d4:	08008bdc 	stmdaeq	r0, {r2, r3, r4, r6, r7, r8, r9, fp, pc}
 80009d8:	ffff0001 			@ <UNDEFINED> instruction: 0xffff0001

080009dc <__sinit.part.0>:
 80009dc:	e92d 4ff8 	stmdb	sp!, {r3, r4, r5, r6, r7, r8, r9, sl, fp, lr}
 80009e0:	4b34      	ldr	r3, [pc, #208]	@ (8000ab4 <__sinit.part.0+0xd8>)
 80009e2:	4935      	ldr	r1, [pc, #212]	@ (8000ab8 <__sinit.part.0+0xdc>)
 80009e4:	681a      	ldr	r2, [r3, #0]
 80009e6:	6281      	str	r1, [r0, #40]	@ 0x28
 80009e8:	4290      	cmp	r0, r2
 80009ea:	f04f 0300 	mov.w	r3, #0
 80009ee:	e9c0 3312 	strd	r3, r3, [r0, #72]	@ 0x48
 80009f2:	6503      	str	r3, [r0, #80]	@ 0x50
 80009f4:	bf04      	itt	eq
 80009f6:	2301      	moveq	r3, #1
 80009f8:	6183      	streq	r3, [r0, #24]
 80009fa:	4605      	mov	r5, r0
 80009fc:	f7ff ff9a 	bl	8000934 <__sfp>
 8000a00:	6068      	str	r0, [r5, #4]
 8000a02:	4628      	mov	r0, r5
 8000a04:	f7ff ff96 	bl	8000934 <__sfp>
 8000a08:	60a8      	str	r0, [r5, #8]
 8000a0a:	4628      	mov	r0, r5
 8000a0c:	f7ff ff92 	bl	8000934 <__sfp>
 8000a10:	686f      	ldr	r7, [r5, #4]
 8000a12:	60e8      	str	r0, [r5, #12]
 8000a14:	2400      	movs	r4, #0
 8000a16:	2304      	movs	r3, #4
 8000a18:	e9c7 4302 	strd	r4, r3, [r7, #8]
 8000a1c:	2208      	movs	r2, #8
 8000a1e:	4621      	mov	r1, r4
 8000a20:	e9c7 4400 	strd	r4, r4, [r7]
 8000a24:	e9c7 4404 	strd	r4, r4, [r7, #16]
 8000a28:	667c      	str	r4, [r7, #100]	@ 0x64
 8000a2a:	61bc      	str	r4, [r7, #24]
 8000a2c:	f107 005c 	add.w	r0, r7, #92	@ 0x5c
 8000a30:	f7ff fd60 	bl	80004f4 <memset>
 8000a34:	f8df b084 	ldr.w	fp, [pc, #132]	@ 8000abc <__sinit.part.0+0xe0>
 8000a38:	68ae      	ldr	r6, [r5, #8]
 8000a3a:	f8df a084 	ldr.w	sl, [pc, #132]	@ 8000ac0 <__sinit.part.0+0xe4>
 8000a3e:	f8df 9084 	ldr.w	r9, [pc, #132]	@ 8000ac4 <__sinit.part.0+0xe8>
 8000a42:	f8df 8084 	ldr.w	r8, [pc, #132]	@ 8000ac8 <__sinit.part.0+0xec>
 8000a46:	4b21      	ldr	r3, [pc, #132]	@ (8000acc <__sinit.part.0+0xf0>)
 8000a48:	f8c7 a028 	str.w	sl, [r7, #40]	@ 0x28
 8000a4c:	e9c7 7b08 	strd	r7, fp, [r7, #32]
 8000a50:	f8c7 902c 	str.w	r9, [r7, #44]	@ 0x2c
 8000a54:	f8c7 8030 	str.w	r8, [r7, #48]	@ 0x30
 8000a58:	2208      	movs	r2, #8
 8000a5a:	60f3      	str	r3, [r6, #12]
 8000a5c:	e9c6 4400 	strd	r4, r4, [r6]
 8000a60:	e9c6 4404 	strd	r4, r4, [r6, #16]
 8000a64:	6674      	str	r4, [r6, #100]	@ 0x64
 8000a66:	60b4      	str	r4, [r6, #8]
 8000a68:	61b4      	str	r4, [r6, #24]
 8000a6a:	4621      	mov	r1, r4
 8000a6c:	f106 005c 	add.w	r0, r6, #92	@ 0x5c
 8000a70:	f7ff fd40 	bl	80004f4 <memset>
 8000a74:	e9c6 6b08 	strd	r6, fp, [r6, #32]
 8000a78:	e9c6 a90a 	strd	sl, r9, [r6, #40]	@ 0x28
 8000a7c:	f8c6 8030 	str.w	r8, [r6, #48]	@ 0x30
 8000a80:	68ee      	ldr	r6, [r5, #12]
 8000a82:	4b13      	ldr	r3, [pc, #76]	@ (8000ad0 <__sinit.part.0+0xf4>)
 8000a84:	60f3      	str	r3, [r6, #12]
 8000a86:	e9c6 4400 	strd	r4, r4, [r6]
 8000a8a:	e9c6 4404 	strd	r4, r4, [r6, #16]
 8000a8e:	6674      	str	r4, [r6, #100]	@ 0x64
 8000a90:	60b4      	str	r4, [r6, #8]
 8000a92:	61b4      	str	r4, [r6, #24]
 8000a94:	4621      	mov	r1, r4
 8000a96:	2208      	movs	r2, #8
 8000a98:	f106 005c 	add.w	r0, r6, #92	@ 0x5c
 8000a9c:	f7ff fd2a 	bl	80004f4 <memset>
 8000aa0:	2301      	movs	r3, #1
 8000aa2:	e9c6 6b08 	strd	r6, fp, [r6, #32]
 8000aa6:	e9c6 980b 	strd	r9, r8, [r6, #44]	@ 0x2c
 8000aaa:	f8c6 a028 	str.w	sl, [r6, #40]	@ 0x28
 8000aae:	61ab      	str	r3, [r5, #24]
 8000ab0:	e8bd 8ff8 	ldmia.w	sp!, {r3, r4, r5, r6, r7, r8, r9, sl, fp, pc}
 8000ab4:	08008bdc 	stmdaeq	r0, {r2, r3, r4, r6, r7, r8, r9, fp, pc}
 8000ab8:	080008f5 	stmdaeq	r0, {r0, r2, r4, r5, r6, r7, fp}
 8000abc:	08000e81 	stmdaeq	r0, {r0, r7, r9, sl, fp}
 8000ac0:	08000ea9 	stmdaeq	r0, {r0, r3, r5, r7, r9, sl, fp}
 8000ac4:	08000ee9 	stmdaeq	r0, {r0, r3, r5, r6, r7, r9, sl, fp}
 8000ac8:	08000f09 	stmdaeq	r0, {r0, r3, r8, r9, sl, fp}
 8000acc:	00010009 	andeq	r0, r1, r9
 8000ad0:	00020012 	andeq	r0, r2, r2, lsl r0

08000ad4 <_cleanup>:
 8000ad4:	4b02      	ldr	r3, [pc, #8]	@ (8000ae0 <_cleanup+0xc>)
 8000ad6:	4903      	ldr	r1, [pc, #12]	@ (8000ae4 <_cleanup+0x10>)
 8000ad8:	6818      	ldr	r0, [r3, #0]
 8000ada:	f000 b845 	b.w	8000b68 <_fwalk_reent>
 8000ade:	bf00      	nop
 8000ae0:	08008bdc 	stmdaeq	r0, {r2, r3, r4, r6, r7, r8, r9, fp, pc}
 8000ae4:	0800081d 	stmdaeq	r0, {r0, r2, r3, r4, fp}

08000ae8 <__sinit>:
 8000ae8:	6983      	ldr	r3, [r0, #24]
 8000aea:	b903      	cbnz	r3, 8000aee <__sinit+0x6>
 8000aec:	e776      	b.n	80009dc <__sinit.part.0>
 8000aee:	4770      	bx	lr

08000af0 <__sfp_lock_acquire>:
 8000af0:	4770      	bx	lr
 8000af2:	bf00      	nop

08000af4 <__sfp_lock_release>:
 8000af4:	4770      	bx	lr
 8000af6:	bf00      	nop

08000af8 <__sinit_lock_acquire>:
 8000af8:	4770      	bx	lr
 8000afa:	bf00      	nop

08000afc <__sinit_lock_release>:
 8000afc:	4770      	bx	lr
 8000afe:	bf00      	nop

08000b00 <__fp_lock_all>:
 8000b00:	4b02      	ldr	r3, [pc, #8]	@ (8000b0c <__fp_lock_all+0xc>)
 8000b02:	4903      	ldr	r1, [pc, #12]	@ (8000b10 <__fp_lock_all+0x10>)
 8000b04:	6818      	ldr	r0, [r3, #0]
 8000b06:	f000 b80f 	b.w	8000b28 <_fwalk>
 8000b0a:	bf00      	nop
 8000b0c:	20000000 	andcs	r0, r0, r0
 8000b10:	080008f1 	stmdaeq	r0, {r0, r4, r5, r6, r7, fp}

08000b14 <__fp_unlock_all>:
 8000b14:	4b02      	ldr	r3, [pc, #8]	@ (8000b20 <__fp_unlock_all+0xc>)
 8000b16:	4903      	ldr	r1, [pc, #12]	@ (8000b24 <__fp_unlock_all+0x10>)
 8000b18:	6818      	ldr	r0, [r3, #0]
 8000b1a:	f000 b805 	b.w	8000b28 <_fwalk>
 8000b1e:	bf00      	nop
 8000b20:	20000000 	andcs	r0, r0, r0
 8000b24:	08000901 	stmdaeq	r0, {r0, r8, fp}

08000b28 <_fwalk>:
 8000b28:	e92d 41f0 	stmdb	sp!, {r4, r5, r6, r7, r8, lr}
 8000b2c:	4688      	mov	r8, r1
 8000b2e:	f100 0748 	add.w	r7, r0, #72	@ 0x48
 8000b32:	2600      	movs	r6, #0
 8000b34:	e9d7 5401 	ldrd	r5, r4, [r7, #4]
 8000b38:	3d01      	subs	r5, #1
 8000b3a:	d40f      	bmi.n	8000b5c <_fwalk+0x34>
 8000b3c:	89a3      	ldrh	r3, [r4, #12]
 8000b3e:	2b01      	cmp	r3, #1
 8000b40:	f105 35ff 	add.w	r5, r5, #4294967295	@ 0xffffffff
 8000b44:	d906      	bls.n	8000b54 <_fwalk+0x2c>
 8000b46:	f9b4 300e 	ldrsh.w	r3, [r4, #14]
 8000b4a:	3301      	adds	r3, #1
 8000b4c:	4620      	mov	r0, r4
 8000b4e:	d001      	beq.n	8000b54 <_fwalk+0x2c>
 8000b50:	47c0      	blx	r8
 8000b52:	4306      	orrs	r6, r0
 8000b54:	1c6b      	adds	r3, r5, #1
 8000b56:	f104 0468 	add.w	r4, r4, #104	@ 0x68
 8000b5a:	d1ef      	bne.n	8000b3c <_fwalk+0x14>
 8000b5c:	683f      	ldr	r7, [r7, #0]
 8000b5e:	2f00      	cmp	r7, #0
 8000b60:	d1e8      	bne.n	8000b34 <_fwalk+0xc>
 8000b62:	4630      	mov	r0, r6
 8000b64:	e8bd 81f0 	ldmia.w	sp!, {r4, r5, r6, r7, r8, pc}

08000b68 <_fwalk_reent>:
 8000b68:	e92d 43f8 	stmdb	sp!, {r3, r4, r5, r6, r7, r8, r9, lr}
 8000b6c:	4607      	mov	r7, r0
 8000b6e:	4688      	mov	r8, r1
 8000b70:	f100 0648 	add.w	r6, r0, #72	@ 0x48
 8000b74:	f04f 0900 	mov.w	r9, #0
 8000b78:	e9d6 5401 	ldrd	r5, r4, [r6, #4]
 8000b7c:	3d01      	subs	r5, #1
 8000b7e:	d411      	bmi.n	8000ba4 <_fwalk_reent+0x3c>
 8000b80:	89a3      	ldrh	r3, [r4, #12]
 8000b82:	2b01      	cmp	r3, #1
 8000b84:	f105 35ff 	add.w	r5, r5, #4294967295	@ 0xffffffff
 8000b88:	d908      	bls.n	8000b9c <_fwalk_reent+0x34>
 8000b8a:	f9b4 300e 	ldrsh.w	r3, [r4, #14]
 8000b8e:	3301      	adds	r3, #1
 8000b90:	4621      	mov	r1, r4
 8000b92:	d003      	beq.n	8000b9c <_fwalk_reent+0x34>
 8000b94:	4638      	mov	r0, r7
 8000b96:	47c0      	blx	r8
 8000b98:	ea49 0900 	orr.w	r9, r9, r0
 8000b9c:	1c6b      	adds	r3, r5, #1
 8000b9e:	f104 0468 	add.w	r4, r4, #104	@ 0x68
 8000ba2:	d1ed      	bne.n	8000b80 <_fwalk_reent+0x18>
 8000ba4:	6836      	ldr	r6, [r6, #0]
 8000ba6:	2e00      	cmp	r6, #0
 8000ba8:	d1e6      	bne.n	8000b78 <_fwalk_reent+0x10>
 8000baa:	4648      	mov	r0, r9
 8000bac:	e8bd 83f8 	ldmia.w	sp!, {r3, r4, r5, r6, r7, r8, r9, pc}

08000bb0 <__smakebuf_r>:
 8000bb0:	b5f0      	push	{r4, r5, r6, r7, lr}
 8000bb2:	898b      	ldrh	r3, [r1, #12]
 8000bb4:	460c      	mov	r4, r1
 8000bb6:	0799      	lsls	r1, r3, #30
 8000bb8:	b097      	sub	sp, #92	@ 0x5c
 8000bba:	d507      	bpl.n	8000bcc <__smakebuf_r+0x1c>
 8000bbc:	f104 0347 	add.w	r3, r4, #71	@ 0x47
 8000bc0:	2201      	movs	r2, #1
 8000bc2:	e9c4 3204 	strd	r3, r2, [r4, #16]
 8000bc6:	6023      	str	r3, [r4, #0]
 8000bc8:	b017      	add	sp, #92	@ 0x5c
 8000bca:	bdf0      	pop	{r4, r5, r6, r7, pc}
 8000bcc:	f9b4 100e 	ldrsh.w	r1, [r4, #14]
 8000bd0:	2900      	cmp	r1, #0
 8000bd2:	4605      	mov	r5, r0
 8000bd4:	db2d      	blt.n	8000c32 <__smakebuf_r+0x82>
 8000bd6:	466a      	mov	r2, sp
 8000bd8:	f000 f9c2 	bl	8000f60 <_fstat_r>
 8000bdc:	2800      	cmp	r0, #0
 8000bde:	db27      	blt.n	8000c30 <__smakebuf_r+0x80>
 8000be0:	9e01      	ldr	r6, [sp, #4]
 8000be2:	f406 4670 	and.w	r6, r6, #61440	@ 0xf000
 8000be6:	f44f 6780 	mov.w	r7, #1024	@ 0x400
 8000bea:	f5a6 5600 	sub.w	r6, r6, #8192	@ 0x2000
 8000bee:	fab6 f686 	clz	r6, r6
 8000bf2:	4639      	mov	r1, r7
 8000bf4:	4628      	mov	r0, r5
 8000bf6:	0976      	lsrs	r6, r6, #5
 8000bf8:	f000 f8d6 	bl	8000da8 <_malloc_r>
 8000bfc:	b330      	cbz	r0, 8000c4c <__smakebuf_r+0x9c>
 8000bfe:	89a3      	ldrh	r3, [r4, #12]
 8000c00:	4a1a      	ldr	r2, [pc, #104]	@ (8000c6c <__smakebuf_r+0xbc>)
 8000c02:	62aa      	str	r2, [r5, #40]	@ 0x28
 8000c04:	f043 0380 	orr.w	r3, r3, #128	@ 0x80
 8000c08:	e9c4 0704 	strd	r0, r7, [r4, #16]
 8000c0c:	81a3      	strh	r3, [r4, #12]
 8000c0e:	6020      	str	r0, [r4, #0]
 8000c10:	2e00      	cmp	r6, #0
 8000c12:	d0d9      	beq.n	8000bc8 <__smakebuf_r+0x18>
 8000c14:	f9b4 100e 	ldrsh.w	r1, [r4, #14]
 8000c18:	4628      	mov	r0, r5
 8000c1a:	f000 f9b7 	bl	8000f8c <_isatty_r>
 8000c1e:	2800      	cmp	r0, #0
 8000c20:	d0d2      	beq.n	8000bc8 <__smakebuf_r+0x18>
 8000c22:	89a3      	ldrh	r3, [r4, #12]
 8000c24:	f023 0303 	bic.w	r3, r3, #3
 8000c28:	f043 0301 	orr.w	r3, r3, #1
 8000c2c:	81a3      	strh	r3, [r4, #12]
 8000c2e:	e7cb      	b.n	8000bc8 <__smakebuf_r+0x18>
 8000c30:	89a3      	ldrh	r3, [r4, #12]
 8000c32:	f013 0f80 	tst.w	r3, #128	@ 0x80
 8000c36:	bf14      	ite	ne
 8000c38:	2740      	movne	r7, #64	@ 0x40
 8000c3a:	f44f 6780 	moveq.w	r7, #1024	@ 0x400
 8000c3e:	4639      	mov	r1, r7
 8000c40:	4628      	mov	r0, r5
 8000c42:	2600      	movs	r6, #0
 8000c44:	f000 f8b0 	bl	8000da8 <_malloc_r>
 8000c48:	2800      	cmp	r0, #0
 8000c4a:	d1d8      	bne.n	8000bfe <__smakebuf_r+0x4e>
 8000c4c:	f9b4 300c 	ldrsh.w	r3, [r4, #12]
 8000c50:	059a      	lsls	r2, r3, #22
 8000c52:	d4b9      	bmi.n	8000bc8 <__smakebuf_r+0x18>
 8000c54:	f023 0303 	bic.w	r3, r3, #3
 8000c58:	f104 0247 	add.w	r2, r4, #71	@ 0x47
 8000c5c:	f043 0302 	orr.w	r3, r3, #2
 8000c60:	2101      	movs	r1, #1
 8000c62:	e9c4 2104 	strd	r2, r1, [r4, #16]
 8000c66:	81a3      	strh	r3, [r4, #12]
 8000c68:	6022      	str	r2, [r4, #0]
 8000c6a:	e7ad      	b.n	8000bc8 <__smakebuf_r+0x18>
 8000c6c:	080008f5 	stmdaeq	r0, {r0, r2, r4, r5, r6, r7, fp}

08000c70 <__swhatbuf_r>:
 8000c70:	b570      	push	{r4, r5, r6, lr}
 8000c72:	460c      	mov	r4, r1
 8000c74:	f9b1 100e 	ldrsh.w	r1, [r1, #14]
 8000c78:	2900      	cmp	r1, #0
 8000c7a:	b096      	sub	sp, #88	@ 0x58
 8000c7c:	4616      	mov	r6, r2
 8000c7e:	461d      	mov	r5, r3
 8000c80:	db13      	blt.n	8000caa <__swhatbuf_r+0x3a>
 8000c82:	466a      	mov	r2, sp
 8000c84:	f000 f96c 	bl	8000f60 <_fstat_r>
 8000c88:	2800      	cmp	r0, #0
 8000c8a:	db0e      	blt.n	8000caa <__swhatbuf_r+0x3a>
 8000c8c:	9901      	ldr	r1, [sp, #4]
 8000c8e:	f401 4170 	and.w	r1, r1, #61440	@ 0xf000
 8000c92:	f5a1 5100 	sub.w	r1, r1, #8192	@ 0x2000
 8000c96:	fab1 f181 	clz	r1, r1
 8000c9a:	f44f 6380 	mov.w	r3, #1024	@ 0x400
 8000c9e:	0949      	lsrs	r1, r1, #5
 8000ca0:	2000      	movs	r0, #0
 8000ca2:	6029      	str	r1, [r5, #0]
 8000ca4:	6033      	str	r3, [r6, #0]
 8000ca6:	b016      	add	sp, #88	@ 0x58
 8000ca8:	bd70      	pop	{r4, r5, r6, pc}
 8000caa:	f9b4 300c 	ldrsh.w	r3, [r4, #12]
 8000cae:	2200      	movs	r2, #0
 8000cb0:	061b      	lsls	r3, r3, #24
 8000cb2:	602a      	str	r2, [r5, #0]
 8000cb4:	d504      	bpl.n	8000cc0 <__swhatbuf_r+0x50>
 8000cb6:	2340      	movs	r3, #64	@ 0x40
 8000cb8:	2000      	movs	r0, #0
 8000cba:	6033      	str	r3, [r6, #0]
 8000cbc:	b016      	add	sp, #88	@ 0x58
 8000cbe:	bd70      	pop	{r4, r5, r6, pc}
 8000cc0:	f44f 6380 	mov.w	r3, #1024	@ 0x400
 8000cc4:	2000      	movs	r0, #0
 8000cc6:	6033      	str	r3, [r6, #0]
 8000cc8:	b016      	add	sp, #88	@ 0x58
 8000cca:	bd70      	pop	{r4, r5, r6, pc}

08000ccc <malloc>:
 8000ccc:	4b02      	ldr	r3, [pc, #8]	@ (8000cd8 <malloc+0xc>)
 8000cce:	4601      	mov	r1, r0
 8000cd0:	6818      	ldr	r0, [r3, #0]
 8000cd2:	f000 b869 	b.w	8000da8 <_malloc_r>
 8000cd6:	bf00      	nop
 8000cd8:	20000000 	andcs	r0, r0, r0

08000cdc <free>:
 8000cdc:	4b02      	ldr	r3, [pc, #8]	@ (8000ce8 <free+0xc>)
 8000cde:	4601      	mov	r1, r0
 8000ce0:	6818      	ldr	r0, [r3, #0]
 8000ce2:	f000 b803 	b.w	8000cec <_free_r>
 8000ce6:	bf00      	nop
 8000ce8:	20000000 	andcs	r0, r0, r0

08000cec <_free_r>:
 8000cec:	2900      	cmp	r1, #0
 8000cee:	d051      	beq.n	8000d94 <_free_r+0xa8>
 8000cf0:	b538      	push	{r3, r4, r5, lr}
 8000cf2:	f851 3c04 	ldr.w	r3, [r1, #-4]
 8000cf6:	1f0c      	subs	r4, r1, #4
 8000cf8:	2b00      	cmp	r3, #0
 8000cfa:	bfb8      	it	lt
 8000cfc:	18e4      	addlt	r4, r4, r3
 8000cfe:	4605      	mov	r5, r0
 8000d00:	f000 f96c 	bl	8000fdc <__malloc_lock>
 8000d04:	4a27      	ldr	r2, [pc, #156]	@ (8000da4 <_free_r+0xb8>)
 8000d06:	6813      	ldr	r3, [r2, #0]
 8000d08:	b12b      	cbz	r3, 8000d16 <_free_r+0x2a>
 8000d0a:	42a3      	cmp	r3, r4
 8000d0c:	d90c      	bls.n	8000d28 <_free_r+0x3c>
 8000d0e:	6821      	ldr	r1, [r4, #0]
 8000d10:	1860      	adds	r0, r4, r1
 8000d12:	4283      	cmp	r3, r0
 8000d14:	d02c      	beq.n	8000d70 <_free_r+0x84>
 8000d16:	6063      	str	r3, [r4, #4]
 8000d18:	4628      	mov	r0, r5
 8000d1a:	6014      	str	r4, [r2, #0]
 8000d1c:	e8bd 4038 	ldmia.w	sp!, {r3, r4, r5, lr}
 8000d20:	f000 b95e 	b.w	8000fe0 <__malloc_unlock>
 8000d24:	42a3      	cmp	r3, r4
 8000d26:	d80f      	bhi.n	8000d48 <_free_r+0x5c>
 8000d28:	461a      	mov	r2, r3
 8000d2a:	685b      	ldr	r3, [r3, #4]
 8000d2c:	2b00      	cmp	r3, #0
 8000d2e:	d1f9      	bne.n	8000d24 <_free_r+0x38>
 8000d30:	6811      	ldr	r1, [r2, #0]
 8000d32:	1850      	adds	r0, r2, r1
 8000d34:	4284      	cmp	r4, r0
 8000d36:	d017      	beq.n	8000d68 <_free_r+0x7c>
 8000d38:	d32d      	bcc.n	8000d96 <_free_r+0xaa>
 8000d3a:	6063      	str	r3, [r4, #4]
 8000d3c:	6054      	str	r4, [r2, #4]
 8000d3e:	4628      	mov	r0, r5
 8000d40:	e8bd 4038 	ldmia.w	sp!, {r3, r4, r5, lr}
 8000d44:	f000 b94c 	b.w	8000fe0 <__malloc_unlock>
 8000d48:	6811      	ldr	r1, [r2, #0]
 8000d4a:	1850      	adds	r0, r2, r1
 8000d4c:	42a0      	cmp	r0, r4
 8000d4e:	d015      	beq.n	8000d7c <_free_r+0x90>
 8000d50:	d821      	bhi.n	8000d96 <_free_r+0xaa>
 8000d52:	6821      	ldr	r1, [r4, #0]
 8000d54:	1860      	adds	r0, r4, r1
 8000d56:	4283      	cmp	r3, r0
 8000d58:	d1ef      	bne.n	8000d3a <_free_r+0x4e>
 8000d5a:	6818      	ldr	r0, [r3, #0]
 8000d5c:	685b      	ldr	r3, [r3, #4]
 8000d5e:	4401      	add	r1, r0
 8000d60:	e9c4 1300 	strd	r1, r3, [r4]
 8000d64:	6054      	str	r4, [r2, #4]
 8000d66:	e7ea      	b.n	8000d3e <_free_r+0x52>
 8000d68:	6823      	ldr	r3, [r4, #0]
 8000d6a:	4419      	add	r1, r3
 8000d6c:	6011      	str	r1, [r2, #0]
 8000d6e:	e7e6      	b.n	8000d3e <_free_r+0x52>
 8000d70:	6818      	ldr	r0, [r3, #0]
 8000d72:	685b      	ldr	r3, [r3, #4]
 8000d74:	4401      	add	r1, r0
 8000d76:	e9c4 1300 	strd	r1, r3, [r4]
 8000d7a:	e7cd      	b.n	8000d18 <_free_r+0x2c>
 8000d7c:	6820      	ldr	r0, [r4, #0]
 8000d7e:	4401      	add	r1, r0
 8000d80:	1850      	adds	r0, r2, r1
 8000d82:	4283      	cmp	r3, r0
 8000d84:	6011      	str	r1, [r2, #0]
 8000d86:	d1da      	bne.n	8000d3e <_free_r+0x52>
 8000d88:	e9d3 0300 	ldrd	r0, r3, [r3]
 8000d8c:	4401      	add	r1, r0
 8000d8e:	e9c2 1300 	strd	r1, r3, [r2]
 8000d92:	e7d4      	b.n	8000d3e <_free_r+0x52>
 8000d94:	4770      	bx	lr
 8000d96:	230c      	movs	r3, #12
 8000d98:	602b      	str	r3, [r5, #0]
 8000d9a:	4628      	mov	r0, r5
 8000d9c:	e8bd 4038 	ldmia.w	sp!, {r3, r4, r5, lr}
 8000da0:	f000 b91e 	b.w	8000fe0 <__malloc_unlock>
 8000da4:	200000fc 	strdcs	r0, [r0], -ip

08000da8 <_malloc_r>:
 8000da8:	b5f8      	push	{r3, r4, r5, r6, r7, lr}
 8000daa:	1ccd      	adds	r5, r1, #3
 8000dac:	f025 0503 	bic.w	r5, r5, #3
 8000db0:	3508      	adds	r5, #8
 8000db2:	2d0c      	cmp	r5, #12
 8000db4:	bf38      	it	cc
 8000db6:	250c      	movcc	r5, #12
 8000db8:	2d00      	cmp	r5, #0
 8000dba:	4606      	mov	r6, r0
 8000dbc:	db23      	blt.n	8000e06 <_malloc_r+0x5e>
 8000dbe:	42a9      	cmp	r1, r5
 8000dc0:	d821      	bhi.n	8000e06 <_malloc_r+0x5e>
 8000dc2:	4f25      	ldr	r7, [pc, #148]	@ (8000e58 <_malloc_r+0xb0>)
 8000dc4:	f000 f90a 	bl	8000fdc <__malloc_lock>
 8000dc8:	683a      	ldr	r2, [r7, #0]
 8000dca:	b322      	cbz	r2, 8000e16 <_malloc_r+0x6e>
 8000dcc:	4614      	mov	r4, r2
 8000dce:	e003      	b.n	8000dd8 <_malloc_r+0x30>
 8000dd0:	6863      	ldr	r3, [r4, #4]
 8000dd2:	4622      	mov	r2, r4
 8000dd4:	b1fb      	cbz	r3, 8000e16 <_malloc_r+0x6e>
 8000dd6:	461c      	mov	r4, r3
 8000dd8:	6823      	ldr	r3, [r4, #0]
 8000dda:	1b5b      	subs	r3, r3, r5
 8000ddc:	d4f8      	bmi.n	8000dd0 <_malloc_r+0x28>
 8000dde:	2b0b      	cmp	r3, #11
 8000de0:	d815      	bhi.n	8000e0e <_malloc_r+0x66>
 8000de2:	6863      	ldr	r3, [r4, #4]
 8000de4:	4294      	cmp	r4, r2
 8000de6:	bf0c      	ite	eq
 8000de8:	603b      	streq	r3, [r7, #0]
 8000dea:	6053      	strne	r3, [r2, #4]
 8000dec:	4630      	mov	r0, r6
 8000dee:	f000 f8f7 	bl	8000fe0 <__malloc_unlock>
 8000df2:	f104 000b 	add.w	r0, r4, #11
 8000df6:	1d23      	adds	r3, r4, #4
 8000df8:	f020 0007 	bic.w	r0, r0, #7
 8000dfc:	1ac2      	subs	r2, r0, r3
 8000dfe:	d001      	beq.n	8000e04 <_malloc_r+0x5c>
 8000e00:	1a1b      	subs	r3, r3, r0
 8000e02:	50a3      	str	r3, [r4, r2]
 8000e04:	bdf8      	pop	{r3, r4, r5, r6, r7, pc}
 8000e06:	230c      	movs	r3, #12
 8000e08:	6033      	str	r3, [r6, #0]
 8000e0a:	2000      	movs	r0, #0
 8000e0c:	bdf8      	pop	{r3, r4, r5, r6, r7, pc}
 8000e0e:	6023      	str	r3, [r4, #0]
 8000e10:	441c      	add	r4, r3
 8000e12:	6025      	str	r5, [r4, #0]
 8000e14:	e7ea      	b.n	8000dec <_malloc_r+0x44>
 8000e16:	6879      	ldr	r1, [r7, #4]
 8000e18:	b1c9      	cbz	r1, 8000e4e <_malloc_r+0xa6>
 8000e1a:	4629      	mov	r1, r5
 8000e1c:	4630      	mov	r0, r6
 8000e1e:	f000 f81d 	bl	8000e5c <_sbrk_r>
 8000e22:	1c43      	adds	r3, r0, #1
 8000e24:	d00c      	beq.n	8000e40 <_malloc_r+0x98>
 8000e26:	1cc4      	adds	r4, r0, #3
 8000e28:	f024 0403 	bic.w	r4, r4, #3
 8000e2c:	42a0      	cmp	r0, r4
 8000e2e:	d005      	beq.n	8000e3c <_malloc_r+0x94>
 8000e30:	1a21      	subs	r1, r4, r0
 8000e32:	4630      	mov	r0, r6
 8000e34:	f000 f812 	bl	8000e5c <_sbrk_r>
 8000e38:	3001      	adds	r0, #1
 8000e3a:	d001      	beq.n	8000e40 <_malloc_r+0x98>
 8000e3c:	6025      	str	r5, [r4, #0]
 8000e3e:	e7d5      	b.n	8000dec <_malloc_r+0x44>
 8000e40:	230c      	movs	r3, #12
 8000e42:	4630      	mov	r0, r6
 8000e44:	6033      	str	r3, [r6, #0]
 8000e46:	f000 f8cb 	bl	8000fe0 <__malloc_unlock>
 8000e4a:	2000      	movs	r0, #0
 8000e4c:	bdf8      	pop	{r3, r4, r5, r6, r7, pc}
 8000e4e:	4630      	mov	r0, r6
 8000e50:	f000 f804 	bl	8000e5c <_sbrk_r>
 8000e54:	6078      	str	r0, [r7, #4]
 8000e56:	e7e0      	b.n	8000e1a <_malloc_r+0x72>
 8000e58:	200000fc 	strdcs	r0, [r0], -ip

08000e5c <_sbrk_r>:
 8000e5c:	b538      	push	{r3, r4, r5, lr}
 8000e5e:	4d07      	ldr	r5, [pc, #28]	@ (8000e7c <_sbrk_r+0x20>)
 8000e60:	2200      	movs	r2, #0
 8000e62:	4604      	mov	r4, r0
 8000e64:	4608      	mov	r0, r1
 8000e66:	602a      	str	r2, [r5, #0]
 8000e68:	f000 f8e2 	bl	8001030 <_sbrk>
 8000e6c:	1c43      	adds	r3, r0, #1
 8000e6e:	d000      	beq.n	8000e72 <_sbrk_r+0x16>
 8000e70:	bd38      	pop	{r3, r4, r5, pc}
 8000e72:	682b      	ldr	r3, [r5, #0]
 8000e74:	2b00      	cmp	r3, #0
 8000e76:	d0fb      	beq.n	8000e70 <_sbrk_r+0x14>
 8000e78:	6023      	str	r3, [r4, #0]
 8000e7a:	bd38      	pop	{r3, r4, r5, pc}
 8000e7c:	20000104 	andcs	r0, r0, r4, lsl #2

08000e80 <__sread>:
 8000e80:	b510      	push	{r4, lr}
 8000e82:	460c      	mov	r4, r1
 8000e84:	f9b1 100e 	ldrsh.w	r1, [r1, #14]
 8000e88:	f000 f8ac 	bl	8000fe4 <_read_r>
 8000e8c:	2800      	cmp	r0, #0
 8000e8e:	db03      	blt.n	8000e98 <__sread+0x18>
 8000e90:	6d63      	ldr	r3, [r4, #84]	@ 0x54
 8000e92:	4403      	add	r3, r0
 8000e94:	6563      	str	r3, [r4, #84]	@ 0x54
 8000e96:	bd10      	pop	{r4, pc}
 8000e98:	89a3      	ldrh	r3, [r4, #12]
 8000e9a:	f423 5380 	bic.w	r3, r3, #4096	@ 0x1000
 8000e9e:	81a3      	strh	r3, [r4, #12]
 8000ea0:	bd10      	pop	{r4, pc}
 8000ea2:	bf00      	nop

08000ea4 <__seofread>:
 8000ea4:	2000      	movs	r0, #0
 8000ea6:	4770      	bx	lr

08000ea8 <__swrite>:
 8000ea8:	e92d 41f0 	stmdb	sp!, {r4, r5, r6, r7, r8, lr}
 8000eac:	460c      	mov	r4, r1
 8000eae:	f9b1 100c 	ldrsh.w	r1, [r1, #12]
 8000eb2:	461f      	mov	r7, r3
 8000eb4:	05cb      	lsls	r3, r1, #23
 8000eb6:	4605      	mov	r5, r0
 8000eb8:	4616      	mov	r6, r2
 8000eba:	d40b      	bmi.n	8000ed4 <__swrite+0x2c>
 8000ebc:	f421 5180 	bic.w	r1, r1, #4096	@ 0x1000
 8000ec0:	81a1      	strh	r1, [r4, #12]
 8000ec2:	463b      	mov	r3, r7
 8000ec4:	f9b4 100e 	ldrsh.w	r1, [r4, #14]
 8000ec8:	4632      	mov	r2, r6
 8000eca:	4628      	mov	r0, r5
 8000ecc:	e8bd 41f0 	ldmia.w	sp!, {r4, r5, r6, r7, r8, lr}
 8000ed0:	f000 b81e 	b.w	8000f10 <_write_r>
 8000ed4:	f9b4 100e 	ldrsh.w	r1, [r4, #14]
 8000ed8:	2302      	movs	r3, #2
 8000eda:	2200      	movs	r2, #0
 8000edc:	f000 f868 	bl	8000fb0 <_lseek_r>
 8000ee0:	f9b4 100c 	ldrsh.w	r1, [r4, #12]
 8000ee4:	e7ea      	b.n	8000ebc <__swrite+0x14>
 8000ee6:	bf00      	nop

08000ee8 <__sseek>:
 8000ee8:	b510      	push	{r4, lr}
 8000eea:	460c      	mov	r4, r1
 8000eec:	f9b1 100e 	ldrsh.w	r1, [r1, #14]
 8000ef0:	f000 f85e 	bl	8000fb0 <_lseek_r>
 8000ef4:	89a3      	ldrh	r3, [r4, #12]
 8000ef6:	1c42      	adds	r2, r0, #1
 8000ef8:	bf0e      	itee	eq
 8000efa:	f423 5380 	biceq.w	r3, r3, #4096	@ 0x1000
 8000efe:	f443 5380 	orrne.w	r3, r3, #4096	@ 0x1000
 8000f02:	6560      	strne	r0, [r4, #84]	@ 0x54
 8000f04:	81a3      	strh	r3, [r4, #12]
 8000f06:	bd10      	pop	{r4, pc}

08000f08 <__sclose>:
 8000f08:	f9b1 100e 	ldrsh.w	r1, [r1, #14]
 8000f0c:	f000 b816 	b.w	8000f3c <_close_r>

08000f10 <_write_r>:
 8000f10:	b538      	push	{r3, r4, r5, lr}
 8000f12:	460c      	mov	r4, r1
 8000f14:	4d08      	ldr	r5, [pc, #32]	@ (8000f38 <_write_r+0x28>)
 8000f16:	4684      	mov	ip, r0
 8000f18:	4611      	mov	r1, r2
 8000f1a:	4620      	mov	r0, r4
 8000f1c:	461a      	mov	r2, r3
 8000f1e:	2300      	movs	r3, #0
 8000f20:	602b      	str	r3, [r5, #0]
 8000f22:	4664      	mov	r4, ip
 8000f24:	f003 fa02 	bl	800432c <_write>
 8000f28:	1c43      	adds	r3, r0, #1
 8000f2a:	d000      	beq.n	8000f2e <_write_r+0x1e>
 8000f2c:	bd38      	pop	{r3, r4, r5, pc}
 8000f2e:	682b      	ldr	r3, [r5, #0]
 8000f30:	2b00      	cmp	r3, #0
 8000f32:	d0fb      	beq.n	8000f2c <_write_r+0x1c>
 8000f34:	6023      	str	r3, [r4, #0]
 8000f36:	bd38      	pop	{r3, r4, r5, pc}
 8000f38:	20000104 	andcs	r0, r0, r4, lsl #2

08000f3c <_close_r>:
 8000f3c:	b538      	push	{r3, r4, r5, lr}
 8000f3e:	4d07      	ldr	r5, [pc, #28]	@ (8000f5c <_close_r+0x20>)
 8000f40:	2200      	movs	r2, #0
 8000f42:	4604      	mov	r4, r0
 8000f44:	4608      	mov	r0, r1
 8000f46:	602a      	str	r2, [r5, #0]
 8000f48:	f003 f9fc 	bl	8004344 <_close>
 8000f4c:	1c43      	adds	r3, r0, #1
 8000f4e:	d000      	beq.n	8000f52 <_close_r+0x16>
 8000f50:	bd38      	pop	{r3, r4, r5, pc}
 8000f52:	682b      	ldr	r3, [r5, #0]
 8000f54:	2b00      	cmp	r3, #0
 8000f56:	d0fb      	beq.n	8000f50 <_close_r+0x14>
 8000f58:	6023      	str	r3, [r4, #0]
 8000f5a:	bd38      	pop	{r3, r4, r5, pc}
 8000f5c:	20000104 	andcs	r0, r0, r4, lsl #2

08000f60 <_fstat_r>:
 8000f60:	b570      	push	{r4, r5, r6, lr}
 8000f62:	460c      	mov	r4, r1
 8000f64:	4d08      	ldr	r5, [pc, #32]	@ (8000f88 <_fstat_r+0x28>)
 8000f66:	4603      	mov	r3, r0
 8000f68:	2600      	movs	r6, #0
 8000f6a:	4620      	mov	r0, r4
 8000f6c:	4611      	mov	r1, r2
 8000f6e:	461c      	mov	r4, r3
 8000f70:	602e      	str	r6, [r5, #0]
 8000f72:	f000 f84d 	bl	8001010 <_fstat>
 8000f76:	1c43      	adds	r3, r0, #1
 8000f78:	d000      	beq.n	8000f7c <_fstat_r+0x1c>
 8000f7a:	bd70      	pop	{r4, r5, r6, pc}
 8000f7c:	682b      	ldr	r3, [r5, #0]
 8000f7e:	2b00      	cmp	r3, #0
 8000f80:	d0fb      	beq.n	8000f7a <_fstat_r+0x1a>
 8000f82:	6023      	str	r3, [r4, #0]
 8000f84:	bd70      	pop	{r4, r5, r6, pc}
 8000f86:	bf00      	nop
 8000f88:	20000104 	andcs	r0, r0, r4, lsl #2

08000f8c <_isatty_r>:
 8000f8c:	b538      	push	{r3, r4, r5, lr}
 8000f8e:	4d07      	ldr	r5, [pc, #28]	@ (8000fac <_isatty_r+0x20>)
 8000f90:	2200      	movs	r2, #0
 8000f92:	4604      	mov	r4, r0
 8000f94:	4608      	mov	r0, r1
 8000f96:	602a      	str	r2, [r5, #0]
 8000f98:	f000 f842 	bl	8001020 <_isatty>
 8000f9c:	1c43      	adds	r3, r0, #1
 8000f9e:	d000      	beq.n	8000fa2 <_isatty_r+0x16>
 8000fa0:	bd38      	pop	{r3, r4, r5, pc}
 8000fa2:	682b      	ldr	r3, [r5, #0]
 8000fa4:	2b00      	cmp	r3, #0
 8000fa6:	d0fb      	beq.n	8000fa0 <_isatty_r+0x14>
 8000fa8:	6023      	str	r3, [r4, #0]
 8000faa:	bd38      	pop	{r3, r4, r5, pc}
 8000fac:	20000104 	andcs	r0, r0, r4, lsl #2

08000fb0 <_lseek_r>:
 8000fb0:	b538      	push	{r3, r4, r5, lr}
 8000fb2:	460c      	mov	r4, r1
 8000fb4:	4d08      	ldr	r5, [pc, #32]	@ (8000fd8 <_lseek_r+0x28>)
 8000fb6:	4684      	mov	ip, r0
 8000fb8:	4611      	mov	r1, r2
 8000fba:	4620      	mov	r0, r4
 8000fbc:	461a      	mov	r2, r3
 8000fbe:	2300      	movs	r3, #0
 8000fc0:	602b      	str	r3, [r5, #0]
 8000fc2:	4664      	mov	r4, ip
 8000fc4:	f003 f9c2 	bl	800434c <_lseek>
 8000fc8:	1c43      	adds	r3, r0, #1
 8000fca:	d000      	beq.n	8000fce <_lseek_r+0x1e>
 8000fcc:	bd38      	pop	{r3, r4, r5, pc}
 8000fce:	682b      	ldr	r3, [r5, #0]
 8000fd0:	2b00      	cmp	r3, #0
 8000fd2:	d0fb      	beq.n	8000fcc <_lseek_r+0x1c>
 8000fd4:	6023      	str	r3, [r4, #0]
 8000fd6:	bd38      	pop	{r3, r4, r5, pc}
 8000fd8:	20000104 	andcs	r0, r0, r4, lsl #2

08000fdc <__malloc_lock>:
 8000fdc:	4770      	bx	lr
 8000fde:	bf00      	nop

08000fe0 <__malloc_unlock>:
 8000fe0:	4770      	bx	lr
 8000fe2:	bf00      	nop

08000fe4 <_read_r>:
 8000fe4:	b538      	push	{r3, r4, r5, lr}
 8000fe6:	460c      	mov	r4, r1
 8000fe8:	4d08      	ldr	r5, [pc, #32]	@ (800100c <_read_r+0x28>)
 8000fea:	4684      	mov	ip, r0
 8000fec:	4611      	mov	r1, r2
 8000fee:	4620      	mov	r0, r4
 8000ff0:	461a      	mov	r2, r3
 8000ff2:	2300      	movs	r3, #0
 8000ff4:	602b      	str	r3, [r5, #0]
 8000ff6:	4664      	mov	r4, ip
 8000ff8:	f003 f9a2 	bl	8004340 <_read>
 8000ffc:	1c43      	adds	r3, r0, #1
 8000ffe:	d000      	beq.n	8001002 <_read_r+0x1e>
 8001000:	bd38      	pop	{r3, r4, r5, pc}
 8001002:	682b      	ldr	r3, [r5, #0]
 8001004:	2b00      	cmp	r3, #0
 8001006:	d0fb      	beq.n	8001000 <_read_r+0x1c>
 8001008:	6023      	str	r3, [r4, #0]
 800100a:	bd38      	pop	{r3, r4, r5, pc}
 800100c:	20000104 	andcs	r0, r0, r4, lsl #2

08001010 <_fstat>:
 8001010:	4b02      	ldr	r3, [pc, #8]	@ (800101c <_fstat+0xc>)
 8001012:	2258      	movs	r2, #88	@ 0x58
 8001014:	601a      	str	r2, [r3, #0]
 8001016:	f04f 30ff 	mov.w	r0, #4294967295	@ 0xffffffff
 800101a:	4770      	bx	lr
 800101c:	20000104 	andcs	r0, r0, r4, lsl #2

08001020 <_isatty>:
 8001020:	4b02      	ldr	r3, [pc, #8]	@ (800102c <_isatty+0xc>)
 8001022:	2258      	movs	r2, #88	@ 0x58
 8001024:	601a      	str	r2, [r3, #0]
 8001026:	2000      	movs	r0, #0
 8001028:	4770      	bx	lr
 800102a:	bf00      	nop
 800102c:	20000104 	andcs	r0, r0, r4, lsl #2

08001030 <_sbrk>:
 8001030:	4a04      	ldr	r2, [pc, #16]	@ (8001044 <_sbrk+0x14>)
 8001032:	4905      	ldr	r1, [pc, #20]	@ (8001048 <_sbrk+0x18>)
 8001034:	6813      	ldr	r3, [r2, #0]
 8001036:	2b00      	cmp	r3, #0
 8001038:	bf08      	it	eq
 800103a:	460b      	moveq	r3, r1
 800103c:	4418      	add	r0, r3
 800103e:	6010      	str	r0, [r2, #0]
 8001040:	4618      	mov	r0, r3
 8001042:	4770      	bx	lr
 8001044:	20000108 	andcs	r0, r0, r8, lsl #2
 8001048:	2000aa88 	andcs	sl, r0, r8, lsl #21

0800104c <DelayUsCallback>:
 800104c:	b510      	push	{r4, lr}
 800104e:	f7ff f90b 	bl	8000268 <CPU_SR_Save>
 8001052:	4604      	mov	r4, r0
 8001054:	f006 fcf0 	bl	8007a38 <CPU_IntDisMeasStart>
 8001058:	f004 f932 	bl	80052c0 <OSIntEnter>
 800105c:	f006 fd06 	bl	8007a6c <CPU_IntDisMeasStop>
 8001060:	4620      	mov	r0, r4
 8001062:	f7ff f905 	bl	8000270 <CPU_SR_Restore>
 8001066:	4b03      	ldr	r3, [pc, #12]	@ (8001074 <DelayUsCallback+0x28>)
 8001068:	2201      	movs	r2, #1
 800106a:	e8bd 4010 	ldmia.w	sp!, {r4, lr}
 800106e:	601a      	str	r2, [r3, #0]
 8001070:	f004 b936 	b.w	80052e0 <OSIntExit>
 8001074:	2000010c 	andcs	r0, r0, ip, lsl #2

08001078 <RTOS_BPS_TaskCreate>:
 8001078:	b510      	push	{r4, lr}
 800107a:	b08c      	sub	sp, #48	@ 0x30
 800107c:	f89d 4038 	ldrb.w	r4, [sp, #56]	@ 0x38
 8001080:	9400      	str	r4, [sp, #0]
 8001082:	9c10      	ldr	r4, [sp, #64]	@ 0x40
 8001084:	e9cd 4402 	strd	r4, r4, [sp, #8]
 8001088:	9c0f      	ldr	r4, [sp, #60]	@ 0x3c
 800108a:	9401      	str	r4, [sp, #4]
 800108c:	2400      	movs	r4, #0
 800108e:	9406      	str	r4, [sp, #24]
 8001090:	9404      	str	r4, [sp, #16]
 8001092:	f10d 042e 	add.w	r4, sp, #46	@ 0x2e
 8001096:	9408      	str	r4, [sp, #32]
 8001098:	2405      	movs	r4, #5
 800109a:	9407      	str	r4, [sp, #28]
 800109c:	240a      	movs	r4, #10
 800109e:	9405      	str	r4, [sp, #20]
 80010a0:	f005 fdb0 	bl	8006c04 <OSTaskCreate>
 80010a4:	f8bd 002e 	ldrh.w	r0, [sp, #46]	@ 0x2e
 80010a8:	f000 fcd6 	bl	8001a58 <assertOSError>
 80010ac:	b00c      	add	sp, #48	@ 0x30
 80010ae:	bd10      	pop	{r4, pc}

080010b0 <RTOS_BPS_SemCreate>:
 80010b0:	b500      	push	{lr}
 80010b2:	b083      	sub	sp, #12
 80010b4:	f10d 0306 	add.w	r3, sp, #6
 80010b8:	f005 f86c 	bl	8006194 <OSSemCreate>
 80010bc:	f8bd 0006 	ldrh.w	r0, [sp, #6]
 80010c0:	f000 fcca 	bl	8001a58 <assertOSError>
 80010c4:	b003      	add	sp, #12
 80010c6:	f85d fb04 	ldr.w	pc, [sp], #4
 80010ca:	bf00      	nop

080010cc <RTOS_BPS_SemPend>:
 80010cc:	b510      	push	{r4, lr}
 80010ce:	b084      	sub	sp, #16
 80010d0:	2300      	movs	r3, #0
 80010d2:	460a      	mov	r2, r1
 80010d4:	f10d 010e 	add.w	r1, sp, #14
 80010d8:	9100      	str	r1, [sp, #0]
 80010da:	4619      	mov	r1, r3
 80010dc:	f005 f892 	bl	8006204 <OSSemPend>
 80010e0:	4604      	mov	r4, r0
 80010e2:	f8bd 000e 	ldrh.w	r0, [sp, #14]
 80010e6:	f246 13b0 	movw	r3, #25008	@ 0x61b0
 80010ea:	4298      	cmp	r0, r3
 80010ec:	d004      	beq.n	80010f8 <RTOS_BPS_SemPend+0x2c>
 80010ee:	f000 fcb3 	bl	8001a58 <assertOSError>
 80010f2:	4620      	mov	r0, r4
 80010f4:	b004      	add	sp, #16
 80010f6:	bd10      	pop	{r4, pc}
 80010f8:	f04f 34ff 	mov.w	r4, #4294967295	@ 0xffffffff
 80010fc:	4620      	mov	r0, r4
 80010fe:	b004      	add	sp, #16
 8001100:	bd10      	pop	{r4, pc}
 8001102:	bf00      	nop

08001104 <RTOS_BPS_SemPost>:
 8001104:	b510      	push	{r4, lr}
 8001106:	b082      	sub	sp, #8
 8001108:	f10d 0206 	add.w	r2, sp, #6
 800110c:	f005 f984 	bl	8006418 <OSSemPost>
 8001110:	4604      	mov	r4, r0
 8001112:	f8bd 0006 	ldrh.w	r0, [sp, #6]
 8001116:	f000 fc9f 	bl	8001a58 <assertOSError>
 800111a:	4620      	mov	r0, r4
 800111c:	b002      	add	sp, #8
 800111e:	bd10      	pop	{r4, pc}

08001120 <RTOS_BPS_MutexCreate>:
 8001120:	b500      	push	{lr}
 8001122:	b083      	sub	sp, #12
 8001124:	f10d 0206 	add.w	r2, sp, #6
 8001128:	f004 fdda 	bl	8005ce0 <OSMutexCreate>
 800112c:	f8bd 0006 	ldrh.w	r0, [sp, #6]
 8001130:	f000 fc92 	bl	8001a58 <assertOSError>
 8001134:	b003      	add	sp, #12
 8001136:	f85d fb04 	ldr.w	pc, [sp], #4
 800113a:	bf00      	nop

0800113c <RTOS_BPS_MutexPend>:
 800113c:	b500      	push	{lr}
 800113e:	b085      	sub	sp, #20
 8001140:	460a      	mov	r2, r1
 8001142:	2300      	movs	r3, #0
 8001144:	f10d 010e 	add.w	r1, sp, #14
 8001148:	9100      	str	r1, [sp, #0]
 800114a:	4619      	mov	r1, r3
 800114c:	f004 fdfe 	bl	8005d4c <OSMutexPend>
 8001150:	f8bd 000e 	ldrh.w	r0, [sp, #14]
 8001154:	f000 fc80 	bl	8001a58 <assertOSError>
 8001158:	b005      	add	sp, #20
 800115a:	f85d fb04 	ldr.w	pc, [sp], #4
 800115e:	bf00      	nop

08001160 <RTOS_BPS_MutexPost>:
 8001160:	b500      	push	{lr}
 8001162:	b083      	sub	sp, #12
 8001164:	f10d 0206 	add.w	r2, sp, #6
 8001168:	f004 fecc 	bl	8005f04 <OSMutexPost>
 800116c:	f8bd 0006 	ldrh.w	r0, [sp, #6]
 8001170:	f000 fc72 	bl	8001a58 <assertOSError>
 8001174:	b003      	add	sp, #12
 8001176:	f85d fb04 	ldr.w	pc, [sp], #4
 800117a:	bf00      	nop

0800117c <RTOS_BPS_DelaySecs>:
 800117c:	b510      	push	{r4, lr}
 800117e:	b084      	sub	sp, #16
 8001180:	2300      	movs	r3, #0
 8001182:	f10d 040e 	add.w	r4, sp, #14
 8001186:	2110      	movs	r1, #16
 8001188:	4602      	mov	r2, r0
 800118a:	e9cd 1400 	strd	r1, r4, [sp]
 800118e:	4618      	mov	r0, r3
 8001190:	4619      	mov	r1, r3
 8001192:	f006 f9b5 	bl	8007500 <OSTimeDlyHMSM>
 8001196:	f8bd 000e 	ldrh.w	r0, [sp, #14]
 800119a:	f000 fc5d 	bl	8001a58 <assertOSError>
 800119e:	b004      	add	sp, #16
 80011a0:	bd10      	pop	{r4, pc}
 80011a2:	bf00      	nop

080011a4 <RTOS_BPS_DelayMs>:
 80011a4:	b510      	push	{r4, lr}
 80011a6:	b084      	sub	sp, #16
 80011a8:	2200      	movs	r2, #0
 80011aa:	f10d 040e 	add.w	r4, sp, #14
 80011ae:	2110      	movs	r1, #16
 80011b0:	4603      	mov	r3, r0
 80011b2:	e9cd 1400 	strd	r1, r4, [sp]
 80011b6:	4610      	mov	r0, r2
 80011b8:	4611      	mov	r1, r2
 80011ba:	f006 f9a1 	bl	8007500 <OSTimeDlyHMSM>
 80011be:	f8bd 000e 	ldrh.w	r0, [sp, #14]
 80011c2:	f000 fc49 	bl	8001a58 <assertOSError>
 80011c6:	b004      	add	sp, #16
 80011c8:	bd10      	pop	{r4, pc}
 80011ca:	bf00      	nop

080011cc <RTOS_BPS_DelayUs>:
 80011cc:	b510      	push	{r4, lr}
 80011ce:	b082      	sub	sp, #8
 80011d0:	4604      	mov	r4, r0
 80011d2:	f10d 0006 	add.w	r0, sp, #6
 80011d6:	f004 f903 	bl	80053e0 <OSSchedLock>
 80011da:	490a      	ldr	r1, [pc, #40]	@ (8001204 <RTOS_BPS_DelayUs+0x38>)
 80011dc:	4620      	mov	r0, r4
 80011de:	f002 fd9b 	bl	8003d18 <BSP_Timer_Start_OneShot>
 80011e2:	4a09      	ldr	r2, [pc, #36]	@ (8001208 <RTOS_BPS_DelayUs+0x3c>)
 80011e4:	6813      	ldr	r3, [r2, #0]
 80011e6:	2b00      	cmp	r3, #0
 80011e8:	d0fc      	beq.n	80011e4 <RTOS_BPS_DelayUs+0x18>
 80011ea:	f8bd 3006 	ldrh.w	r3, [sp, #6]
 80011ee:	2100      	movs	r1, #0
 80011f0:	6011      	str	r1, [r2, #0]
 80011f2:	b10b      	cbz	r3, 80011f8 <RTOS_BPS_DelayUs+0x2c>
 80011f4:	b002      	add	sp, #8
 80011f6:	bd10      	pop	{r4, pc}
 80011f8:	f10d 0006 	add.w	r0, sp, #6
 80011fc:	f004 f916 	bl	800542c <OSSchedUnlock>
 8001200:	b002      	add	sp, #8
 8001202:	bd10      	pop	{r4, pc}
 8001204:	0800104d 	stmdaeq	r0, {r0, r2, r3, r6, ip}
 8001208:	2000010c 	andcs	r0, r0, ip, lsl #2

0800120c <RTOS_BPS_DelayTick>:
 800120c:	b500      	push	{lr}
 800120e:	b083      	sub	sp, #12
 8001210:	f10d 0206 	add.w	r2, sp, #6
 8001214:	2100      	movs	r1, #0
 8001216:	f006 f929 	bl	800746c <OSTimeDly>
 800121a:	f8bd 0006 	ldrh.w	r0, [sp, #6]
 800121e:	f000 fc1b 	bl	8001a58 <assertOSError>
 8001222:	b003      	add	sp, #12
 8001224:	f85d fb04 	ldr.w	pc, [sp], #4

08001228 <Task_AmperesMonitor>:
 8001228:	e92d 4ff0 	stmdb	sp!, {r4, r5, r6, r7, r8, r9, sl, fp, lr}
 800122c:	2400      	movs	r4, #0
 800122e:	b083      	sub	sp, #12
 8001230:	f006 fc4c 	bl	8007acc <Amps_Init>
 8001234:	4e3b      	ldr	r6, [pc, #236]	@ (8001324 <Task_AmperesMonitor+0xfc>)
 8001236:	4d3c      	ldr	r5, [pc, #240]	@ (8001328 <Task_AmperesMonitor+0x100>)
 8001238:	4f3c      	ldr	r7, [pc, #240]	@ (800132c <Task_AmperesMonitor+0x104>)
 800123a:	f8df 90f4 	ldr.w	r9, [pc, #244]	@ 8001330 <Task_AmperesMonitor+0x108>
 800123e:	f8df 80f4 	ldr.w	r8, [pc, #244]	@ 8001334 <Task_AmperesMonitor+0x10c>
 8001242:	f006 fca3 	bl	8007b8c <Amps_Calibrate>
 8001246:	46a2      	mov	sl, r4
 8001248:	e03b      	b.n	80012c2 <Task_AmperesMonitor+0x9a>
 800124a:	4b3b      	ldr	r3, [pc, #236]	@ (8001338 <Task_AmperesMonitor+0x110>)
 800124c:	7819      	ldrb	r1, [r3, #0]
 800124e:	2900      	cmp	r1, #0
 8001250:	d04f      	beq.n	80012f2 <Task_AmperesMonitor+0xca>
 8001252:	6833      	ldr	r3, [r6, #0]
 8001254:	3301      	adds	r3, #1
 8001256:	6033      	str	r3, [r6, #0]
 8001258:	f006 fc92 	bl	8007b80 <Amps_GetReading>
 800125c:	682b      	ldr	r3, [r5, #0]
 800125e:	4403      	add	r3, r0
 8001260:	602b      	str	r3, [r5, #0]
 8001262:	f006 fc8d 	bl	8007b80 <Amps_GetReading>
 8001266:	f006 fdbd 	bl	8007de4 <Charge_Calculate>
 800126a:	f10d 0006 	add.w	r0, sp, #6
 800126e:	f006 f9b3 	bl	80075d8 <OSTimeGet>
 8001272:	eba0 000a 	sub.w	r0, r0, sl
 8001276:	2814      	cmp	r0, #20
 8001278:	d842      	bhi.n	8001300 <Task_AmperesMonitor+0xd8>
 800127a:	f10d 0006 	add.w	r0, sp, #6
 800127e:	f006 f9ab 	bl	80075d8 <OSTimeGet>
 8001282:	1b00      	subs	r0, r0, r4
 8001284:	28c8      	cmp	r0, #200	@ 0xc8
 8001286:	d90b      	bls.n	80012a0 <Task_AmperesMonitor+0x78>
 8001288:	f006 fdae 	bl	8007de8 <Charge_GetPercent>
 800128c:	4b2b      	ldr	r3, [pc, #172]	@ (800133c <Task_AmperesMonitor+0x114>)
 800128e:	60b8      	str	r0, [r7, #8]
 8001290:	cb0f      	ldmia	r3, {r0, r1, r2, r3}
 8001292:	f006 fcc5 	bl	8007c20 <CAN_TransmitQueue_Post>
 8001296:	f10d 0006 	add.w	r0, sp, #6
 800129a:	f006 f99d 	bl	80075d8 <OSTimeGet>
 800129e:	4604      	mov	r4, r0
 80012a0:	2100      	movs	r1, #0
 80012a2:	4640      	mov	r0, r8
 80012a4:	f7ff ff4a 	bl	800113c <RTOS_BPS_MutexPend>
 80012a8:	f899 3000 	ldrb.w	r3, [r9]
 80012ac:	4640      	mov	r0, r8
 80012ae:	f043 0302 	orr.w	r3, r3, #2
 80012b2:	2100      	movs	r1, #0
 80012b4:	f889 3000 	strb.w	r3, [r9]
 80012b8:	f7ff ff52 	bl	8001160 <RTOS_BPS_MutexPost>
 80012bc:	200a      	movs	r0, #10
 80012be:	f7ff ff71 	bl	80011a4 <RTOS_BPS_DelayMs>
 80012c2:	f006 fc1f 	bl	8007b04 <Amps_UpdateMeasurements>
 80012c6:	f007 fa05 	bl	80086d4 <Temperature_GetMinTemperature>
 80012ca:	4683      	mov	fp, r0
 80012cc:	f007 f9fc 	bl	80086c8 <Temperature_GetMaxTemperature>
 80012d0:	4601      	mov	r1, r0
 80012d2:	4658      	mov	r0, fp
 80012d4:	f006 fc1e 	bl	8007b14 <Amps_CheckStatus>
 80012d8:	2800      	cmp	r0, #0
 80012da:	d0b6      	beq.n	800124a <Task_AmperesMonitor+0x22>
 80012dc:	4a18      	ldr	r2, [pc, #96]	@ (8001340 <Task_AmperesMonitor+0x118>)
 80012de:	8813      	ldrh	r3, [r2, #0]
 80012e0:	f043 0308 	orr.w	r3, r3, #8
 80012e4:	8013      	strh	r3, [r2, #0]
 80012e6:	f006 fdc3 	bl	8007e70 <EnterFaultState>
 80012ea:	4b13      	ldr	r3, [pc, #76]	@ (8001338 <Task_AmperesMonitor+0x110>)
 80012ec:	7819      	ldrb	r1, [r3, #0]
 80012ee:	2900      	cmp	r1, #0
 80012f0:	d1af      	bne.n	8001252 <Task_AmperesMonitor+0x2a>
 80012f2:	4814      	ldr	r0, [pc, #80]	@ (8001344 <Task_AmperesMonitor+0x11c>)
 80012f4:	f7ff ff06 	bl	8001104 <RTOS_BPS_SemPost>
 80012f8:	4a0f      	ldr	r2, [pc, #60]	@ (8001338 <Task_AmperesMonitor+0x110>)
 80012fa:	2301      	movs	r3, #1
 80012fc:	7013      	strb	r3, [r2, #0]
 80012fe:	e7a8      	b.n	8001252 <Task_AmperesMonitor+0x2a>
 8001300:	6832      	ldr	r2, [r6, #0]
 8001302:	682b      	ldr	r3, [r5, #0]
 8001304:	fb93 f3f2 	sdiv	r3, r3, r2
 8001308:	60bb      	str	r3, [r7, #8]
 800130a:	e897 000f 	ldmia.w	r7, {r0, r1, r2, r3}
 800130e:	f006 fc87 	bl	8007c20 <CAN_TransmitQueue_Post>
 8001312:	f10d 0006 	add.w	r0, sp, #6
 8001316:	f006 f95f 	bl	80075d8 <OSTimeGet>
 800131a:	2300      	movs	r3, #0
 800131c:	4682      	mov	sl, r0
 800131e:	6033      	str	r3, [r6, #0]
 8001320:	602b      	str	r3, [r5, #0]
 8001322:	e7aa      	b.n	800127a <Task_AmperesMonitor+0x52>
 8001324:	20000114 	andcs	r0, r0, r4, lsl r1
 8001328:	20000118 	andcs	r0, r0, r8, lsl r1
 800132c:	20000064 	andcs	r0, r0, r4, rrx
 8001330:	200039a8 	andcs	r3, r0, r8, lsr #19
 8001334:	200039ac 	andcs	r3, r0, ip, lsr #19
 8001338:	20000110 	andcs	r0, r0, r0, lsl r1
 800133c:	08008c58 	stmdaeq	r0, {r3, r4, r6, sl, fp, pc}
 8001340:	2000162c 	andcs	r1, r0, ip, lsr #12
 8001344:	200030c0 	andcs	r3, r0, r0, asr #1

08001348 <Task_CANBusConsumer>:
 8001348:	b500      	push	{lr}
 800134a:	b085      	sub	sp, #20
 800134c:	f000 fbf0 	bl	8001b30 <CANbus_IsInitialized>
 8001350:	2800      	cmp	r0, #0
 8001352:	d0fb      	beq.n	800134c <Task_CANBusConsumer+0x4>
 8001354:	ac01      	add	r4, sp, #4
 8001356:	4668      	mov	r0, sp
 8001358:	f006 fc9e 	bl	8007c98 <CAN_TransmitQueue_Pend>
 800135c:	e894 000e 	ldmia.w	r4, {r1, r2, r3}
 8001360:	f8bd 0000 	ldrh.w	r0, [sp]
 8001364:	f000 fc16 	bl	8001b94 <CANbus_BlockAndSend>
 8001368:	e7f5      	b.n	8001356 <Task_CANBusConsumer+0xe>
 800136a:	bf00      	nop

0800136c <Task_CANBusProducer>:
 800136c:	b500      	push	{lr}
 800136e:	2100      	movs	r1, #0
 8001370:	b087      	sub	sp, #28
 8001372:	1a40      	subs	r0, r0, r1
 8001374:	f240 5481 	movw	r4, #1409	@ 0x581
 8001378:	f04f 0301 	mov.w	r3, #1
 800137c:	aa01      	add	r2, sp, #4
 800137e:	bf18      	it	ne
 8001380:	2001      	movne	r0, #1
 8001382:	f8ad 4004 	strh.w	r4, [sp, #4]
 8001386:	f000 fb89 	bl	8001a9c <CANbus_Init>
 800138a:	ac02      	add	r4, sp, #8
 800138c:	a903      	add	r1, sp, #12
 800138e:	4620      	mov	r0, r4
 8001390:	f000 fc46 	bl	8001c20 <CANbus_WaitToReceive>
 8001394:	e894 000f 	ldmia.w	r4, {r0, r1, r2, r3}
 8001398:	f006 fcb2 	bl	8007d00 <CAN_ReceiveQueue_Post>
 800139c:	e7f6      	b.n	800138c <Task_CANBusProducer+0x20>
 800139e:	bf00      	nop

080013a0 <Task_CheckContactor>:
 80013a0:	b5f0      	push	{r4, r5, r6, r7, lr}
 80013a2:	b089      	sub	sp, #36	@ 0x24
 80013a4:	466d      	mov	r5, sp
 80013a6:	2300      	movs	r3, #0
 80013a8:	201e      	movs	r0, #30
 80013aa:	9300      	str	r3, [sp, #0]
 80013ac:	e9c5 3301 	strd	r3, r3, [r5, #4]
 80013b0:	60eb      	str	r3, [r5, #12]
 80013b2:	f001 ffdd 	bl	8003370 <BSP_PLL_DelayMs>
 80013b6:	2004      	movs	r0, #4
 80013b8:	f006 fd22 	bl	8007e00 <Contactor_GetState>
 80013bc:	4f35      	ldr	r7, [pc, #212]	@ (8001494 <Task_CheckContactor+0xf4>)
 80013be:	2800      	cmp	r0, #0
 80013c0:	d153      	bne.n	800146a <Task_CheckContactor+0xca>
 80013c2:	2004      	movs	r0, #4
 80013c4:	f006 fd1c 	bl	8007e00 <Contactor_GetState>
 80013c8:	2800      	cmp	r0, #0
 80013ca:	d14e      	bne.n	800146a <Task_CheckContactor+0xca>
 80013cc:	4e32      	ldr	r6, [pc, #200]	@ (8001498 <Task_CheckContactor+0xf8>)
 80013ce:	2404      	movs	r4, #4
 80013d0:	2100      	movs	r1, #0
 80013d2:	4630      	mov	r0, r6
 80013d4:	f7ff fe7a 	bl	80010cc <RTOS_BPS_SemPend>
 80013d8:	1e63      	subs	r3, r4, #1
 80013da:	f013 04ff 	ands.w	r4, r3, #255	@ 0xff
 80013de:	d1f7      	bne.n	80013d0 <Task_CheckContactor+0x30>
 80013e0:	2004      	movs	r0, #4
 80013e2:	f006 fd05 	bl	8007df0 <Contactor_On>
 80013e6:	2004      	movs	r0, #4
 80013e8:	f006 fd02 	bl	8007df0 <Contactor_On>
 80013ec:	2201      	movs	r2, #1
 80013ee:	f240 1301 	movw	r3, #257	@ 0x101
 80013f2:	f88d 2008 	strb.w	r2, [sp, #8]
 80013f6:	f8ad 3000 	strh.w	r3, [sp]
 80013fa:	e895 000f 	ldmia.w	r5, {r0, r1, r2, r3}
 80013fe:	f006 fc0f 	bl	8007c20 <CAN_TransmitQueue_Post>
 8001402:	f44f 7381 	mov.w	r3, #258	@ 0x102
 8001406:	f8ad 3000 	strh.w	r3, [sp]
 800140a:	e01f      	b.n	800144c <Task_CheckContactor+0xac>
 800140c:	a804      	add	r0, sp, #16
 800140e:	f006 fcb3 	bl	8007d78 <CAN_ReceiveQueue_Pend>
 8001412:	2801      	cmp	r0, #1
 8001414:	f240 5381 	movw	r3, #1409	@ 0x581
 8001418:	d103      	bne.n	8001422 <Task_CheckContactor+0x82>
 800141a:	f8bd 2010 	ldrh.w	r2, [sp, #16]
 800141e:	429a      	cmp	r2, r3
 8001420:	d02a      	beq.n	8001478 <Task_CheckContactor+0xd8>
 8001422:	2004      	movs	r0, #4
 8001424:	f006 fcec 	bl	8007e00 <Contactor_GetState>
 8001428:	4606      	mov	r6, r0
 800142a:	2004      	movs	r0, #4
 800142c:	f006 fce8 	bl	8007e00 <Contactor_GetState>
 8001430:	0044      	lsls	r4, r0, #1
 8001432:	2003      	movs	r0, #3
 8001434:	f006 fce4 	bl	8007e00 <Contactor_GetState>
 8001438:	ea44 0486 	orr.w	r4, r4, r6, lsl #2
 800143c:	b264      	sxtb	r4, r4
 800143e:	4304      	orrs	r4, r0
 8001440:	f88d 4008 	strb.w	r4, [sp, #8]
 8001444:	e895 000f 	ldmia.w	r5, {r0, r1, r2, r3}
 8001448:	f006 fbea 	bl	8007c20 <CAN_TransmitQueue_Post>
 800144c:	20c8      	movs	r0, #200	@ 0xc8
 800144e:	f7ff fea9 	bl	80011a4 <RTOS_BPS_DelayMs>
 8001452:	2004      	movs	r0, #4
 8001454:	f006 fcd4 	bl	8007e00 <Contactor_GetState>
 8001458:	2800      	cmp	r0, #0
 800145a:	d1d7      	bne.n	800140c <Task_CheckContactor+0x6c>
 800145c:	883b      	ldrh	r3, [r7, #0]
 800145e:	f443 7300 	orr.w	r3, r3, #512	@ 0x200
 8001462:	803b      	strh	r3, [r7, #0]
 8001464:	f006 fd04 	bl	8007e70 <EnterFaultState>
 8001468:	e7d0      	b.n	800140c <Task_CheckContactor+0x6c>
 800146a:	883b      	ldrh	r3, [r7, #0]
 800146c:	f443 7300 	orr.w	r3, r3, #512	@ 0x200
 8001470:	803b      	strh	r3, [r7, #0]
 8001472:	f006 fcfd 	bl	8007e70 <EnterFaultState>
 8001476:	e7a9      	b.n	80013cc <Task_CheckContactor+0x2c>
 8001478:	f89d 301b 	ldrb.w	r3, [sp, #27]
 800147c:	075b      	lsls	r3, r3, #29
 800147e:	f04f 0003 	mov.w	r0, #3
 8001482:	d502      	bpl.n	800148a <Task_CheckContactor+0xea>
 8001484:	f006 fcb4 	bl	8007df0 <Contactor_On>
 8001488:	e7cb      	b.n	8001422 <Task_CheckContactor+0x82>
 800148a:	2003      	movs	r0, #3
 800148c:	f006 fcb4 	bl	8007df8 <Contactor_Off>
 8001490:	e7c7      	b.n	8001422 <Task_CheckContactor+0x82>
 8001492:	bf00      	nop
 8001494:	2000162c 	andcs	r1, r0, ip, lsr #12
 8001498:	200030c0 	andcs	r3, r0, r0, asr #1

0800149c <Task_Idle>:
 800149c:	e7fe      	b.n	800149c <Task_Idle>
 800149e:	bf00      	nop

080014a0 <Task_Init>:
 80014a0:	b570      	push	{r4, r5, r6, lr}
 80014a2:	4a47      	ldr	r2, [pc, #284]	@ (80015c0 <Task_Init+0x120>)
 80014a4:	4b47      	ldr	r3, [pc, #284]	@ (80015c4 <Task_Init+0x124>)
 80014a6:	6810      	ldr	r0, [r2, #0]
 80014a8:	681b      	ldr	r3, [r3, #0]
 80014aa:	fbb0 f0f3 	udiv	r0, r0, r3
 80014ae:	b086      	sub	sp, #24
 80014b0:	f006 fa7c 	bl	80079ac <OS_CPU_SysTickInit>
 80014b4:	2200      	movs	r2, #0
 80014b6:	4944      	ldr	r1, [pc, #272]	@ (80015c8 <Task_Init+0x128>)
 80014b8:	4844      	ldr	r0, [pc, #272]	@ (80015cc <Task_Init+0x12c>)
 80014ba:	f7ff fdf9 	bl	80010b0 <RTOS_BPS_SemCreate>
 80014be:	4944      	ldr	r1, [pc, #272]	@ (80015d0 <Task_Init+0x130>)
 80014c0:	4844      	ldr	r0, [pc, #272]	@ (80015d4 <Task_Init+0x134>)
 80014c2:	f7ff fe2d 	bl	8001120 <RTOS_BPS_MutexCreate>
 80014c6:	4844      	ldr	r0, [pc, #272]	@ (80015d8 <Task_Init+0x138>)
 80014c8:	4a44      	ldr	r2, [pc, #272]	@ (80015dc <Task_Init+0x13c>)
 80014ca:	f44f 7480 	mov.w	r4, #256	@ 0x100
 80014ce:	2500      	movs	r5, #0
 80014d0:	2101      	movs	r1, #1
 80014d2:	e9cd 1000 	strd	r1, r0, [sp]
 80014d6:	e9cd 4502 	strd	r4, r5, [sp, #8]
 80014da:	4941      	ldr	r1, [pc, #260]	@ (80015e0 <Task_Init+0x140>)
 80014dc:	4841      	ldr	r0, [pc, #260]	@ (80015e4 <Task_Init+0x144>)
 80014de:	2300      	movs	r3, #0
 80014e0:	f7ff fdca 	bl	8001078 <RTOS_BPS_TaskCreate>
 80014e4:	4840      	ldr	r0, [pc, #256]	@ (80015e8 <Task_Init+0x148>)
 80014e6:	4a41      	ldr	r2, [pc, #260]	@ (80015ec <Task_Init+0x14c>)
 80014e8:	2102      	movs	r1, #2
 80014ea:	e9cd 1000 	strd	r1, r0, [sp]
 80014ee:	e9cd 4502 	strd	r4, r5, [sp, #8]
 80014f2:	493f      	ldr	r1, [pc, #252]	@ (80015f0 <Task_Init+0x150>)
 80014f4:	483f      	ldr	r0, [pc, #252]	@ (80015f4 <Task_Init+0x154>)
 80014f6:	2300      	movs	r3, #0
 80014f8:	f7ff fdbe 	bl	8001078 <RTOS_BPS_TaskCreate>
 80014fc:	483e      	ldr	r0, [pc, #248]	@ (80015f8 <Task_Init+0x158>)
 80014fe:	f44f 7200 	mov.w	r2, #512	@ 0x200
 8001502:	2300      	movs	r3, #0
 8001504:	2105      	movs	r1, #5
 8001506:	e9cd 2302 	strd	r2, r3, [sp, #8]
 800150a:	e9cd 1000 	strd	r1, r0, [sp]
 800150e:	4a3b      	ldr	r2, [pc, #236]	@ (80015fc <Task_Init+0x15c>)
 8001510:	493b      	ldr	r1, [pc, #236]	@ (8001600 <Task_Init+0x160>)
 8001512:	483c      	ldr	r0, [pc, #240]	@ (8001604 <Task_Init+0x164>)
 8001514:	2300      	movs	r3, #0
 8001516:	f7ff fdaf 	bl	8001078 <RTOS_BPS_TaskCreate>
 800151a:	483b      	ldr	r0, [pc, #236]	@ (8001608 <Task_Init+0x168>)
 800151c:	4a3b      	ldr	r2, [pc, #236]	@ (800160c <Task_Init+0x16c>)
 800151e:	2106      	movs	r1, #6
 8001520:	e9cd 1000 	strd	r1, r0, [sp]
 8001524:	e9cd 4502 	strd	r4, r5, [sp, #8]
 8001528:	4939      	ldr	r1, [pc, #228]	@ (8001610 <Task_Init+0x170>)
 800152a:	483a      	ldr	r0, [pc, #232]	@ (8001614 <Task_Init+0x174>)
 800152c:	2300      	movs	r3, #0
 800152e:	f7ff fda3 	bl	8001078 <RTOS_BPS_TaskCreate>
 8001532:	4839      	ldr	r0, [pc, #228]	@ (8001618 <Task_Init+0x178>)
 8001534:	4a39      	ldr	r2, [pc, #228]	@ (800161c <Task_Init+0x17c>)
 8001536:	2108      	movs	r1, #8
 8001538:	e9cd 1000 	strd	r1, r0, [sp]
 800153c:	e9cd 4502 	strd	r4, r5, [sp, #8]
 8001540:	4937      	ldr	r1, [pc, #220]	@ (8001620 <Task_Init+0x180>)
 8001542:	4838      	ldr	r0, [pc, #224]	@ (8001624 <Task_Init+0x184>)
 8001544:	2300      	movs	r3, #0
 8001546:	f7ff fd97 	bl	8001078 <RTOS_BPS_TaskCreate>
 800154a:	4837      	ldr	r0, [pc, #220]	@ (8001628 <Task_Init+0x188>)
 800154c:	4a37      	ldr	r2, [pc, #220]	@ (800162c <Task_Init+0x18c>)
 800154e:	2104      	movs	r1, #4
 8001550:	e9cd 1000 	strd	r1, r0, [sp]
 8001554:	e9cd 4502 	strd	r4, r5, [sp, #8]
 8001558:	4935      	ldr	r1, [pc, #212]	@ (8001630 <Task_Init+0x190>)
 800155a:	4836      	ldr	r0, [pc, #216]	@ (8001634 <Task_Init+0x194>)
 800155c:	2300      	movs	r3, #0
 800155e:	f7ff fd8b 	bl	8001078 <RTOS_BPS_TaskCreate>
 8001562:	4835      	ldr	r0, [pc, #212]	@ (8001638 <Task_Init+0x198>)
 8001564:	4a35      	ldr	r2, [pc, #212]	@ (800163c <Task_Init+0x19c>)
 8001566:	2103      	movs	r1, #3
 8001568:	e9cd 1000 	strd	r1, r0, [sp]
 800156c:	e9cd 4502 	strd	r4, r5, [sp, #8]
 8001570:	4933      	ldr	r1, [pc, #204]	@ (8001640 <Task_Init+0x1a0>)
 8001572:	4834      	ldr	r0, [pc, #208]	@ (8001644 <Task_Init+0x1a4>)
 8001574:	2300      	movs	r3, #0
 8001576:	f7ff fd7f 	bl	8001078 <RTOS_BPS_TaskCreate>
 800157a:	4833      	ldr	r0, [pc, #204]	@ (8001648 <Task_Init+0x1a8>)
 800157c:	4a33      	ldr	r2, [pc, #204]	@ (800164c <Task_Init+0x1ac>)
 800157e:	2109      	movs	r1, #9
 8001580:	e9cd 1000 	strd	r1, r0, [sp]
 8001584:	e9cd 4502 	strd	r4, r5, [sp, #8]
 8001588:	4931      	ldr	r1, [pc, #196]	@ (8001650 <Task_Init+0x1b0>)
 800158a:	4832      	ldr	r0, [pc, #200]	@ (8001654 <Task_Init+0x1b4>)
 800158c:	2300      	movs	r3, #0
 800158e:	f7ff fd73 	bl	8001078 <RTOS_BPS_TaskCreate>
 8001592:	260a      	movs	r6, #10
 8001594:	4930      	ldr	r1, [pc, #192]	@ (8001658 <Task_Init+0x1b8>)
 8001596:	4a31      	ldr	r2, [pc, #196]	@ (800165c <Task_Init+0x1bc>)
 8001598:	4831      	ldr	r0, [pc, #196]	@ (8001660 <Task_Init+0x1c0>)
 800159a:	9101      	str	r1, [sp, #4]
 800159c:	2300      	movs	r3, #0
 800159e:	4931      	ldr	r1, [pc, #196]	@ (8001664 <Task_Init+0x1c4>)
 80015a0:	9600      	str	r6, [sp, #0]
 80015a2:	e9cd 4502 	strd	r4, r5, [sp, #8]
 80015a6:	f7ff fd67 	bl	8001078 <RTOS_BPS_TaskCreate>
 80015aa:	f006 fb0b 	bl	8007bc4 <CAN_Queue_Init>
 80015ae:	f006 fd79 	bl	80080a4 <PQ_Init>
 80015b2:	f10d 0116 	add.w	r1, sp, #22
 80015b6:	2000      	movs	r0, #0
 80015b8:	f005 fc24 	bl	8006e04 <OSTaskDel>
 80015bc:	b006      	add	sp, #24
 80015be:	bd70      	pop	{r4, r5, r6, pc}
 80015c0:	200000c4 	andcs	r0, r0, r4, asr #1
 80015c4:	080096b0 	stmdaeq	r0, {r4, r5, r7, r9, sl, ip, pc}
 80015c8:	08008c68 	stmdaeq	r0, {r3, r5, r6, sl, fp, pc}
 80015cc:	200030c0 	andcs	r3, r0, r0, asr #1
 80015d0:	08008c80 	stmdaeq	r0, {r7, sl, fp, pc}
 80015d4:	200039ac 	andcs	r3, r0, ip, lsr #19
 80015d8:	20002740 	andcs	r2, r0, r0, asr #14
 80015dc:	0800167d 	stmdaeq	r0, {r0, r2, r3, r4, r5, r6, r9, sl, ip}
 80015e0:	08008c90 	stmdaeq	r0, {r4, r7, sl, fp, pc}
 80015e4:	20002b40 	andcs	r2, r0, r0, asr #22
 80015e8:	2000116c 	andcs	r1, r0, ip, ror #2
 80015ec:	080013a1 	stmdaeq	r0, {r0, r5, r7, r8, r9, ip}
 80015f0:	08008ca0 	stmdaeq	r0, {r5, r7, sl, fp, pc}
 80015f4:	2000156c 	andcs	r1, r0, ip, ror #10
 80015f8:	200030e8 	andcs	r3, r0, r8, ror #1
 80015fc:	08001721 	stmdaeq	r0, {r0, r5, r8, r9, sl, ip}
 8001600:	08008cb4 	stmdaeq	r0, {r2, r4, r5, r7, sl, fp, pc}
 8001604:	200038e8 	andcs	r3, r0, r8, ror #17
 8001608:	2000032c 	andcs	r0, r0, ip, lsr #6
 800160c:	08001229 	stmdaeq	r0, {r0, r3, r5, r9, ip}
 8001610:	08008ccc 	stmdaeq	r0, {r2, r3, r6, r7, sl, fp, pc}
 8001614:	2000072c 	andcs	r0, r0, ip, lsr #14
 8001618:	20001fb0 			@ <UNDEFINED> instruction: 0x20001fb0
 800161c:	08001669 	stmdaeq	r0, {r0, r3, r5, r6, r9, sl, ip}
 8001620:	08008ce4 	stmdaeq	r0, {r2, r5, r6, r7, sl, fp, pc}
 8001624:	200023b0 			@ <UNDEFINED> instruction: 0x200023b0
 8001628:	200007ec 	andcs	r0, r0, ip, ror #15
 800162c:	08001349 	stmdaeq	r0, {r0, r3, r6, r8, r9, ip}
 8001630:	08008cf4 	stmdaeq	r0, {r2, r4, r5, r6, r7, sl, fp, pc}
 8001634:	20000bec 	andcs	r0, r0, ip, ror #23
 8001638:	20000cac 	andcs	r0, r0, ip, lsr #25
 800163c:	0800136d 	stmdaeq	r0, {r0, r2, r3, r5, r6, r8, r9, ip}
 8001640:	08008d0c 	stmdaeq	r0, {r2, r3, r8, sl, fp, pc}
 8001644:	200010ac 	andcs	r1, r0, ip, lsr #1
 8001648:	20002c00 	andcs	r2, r0, r0, lsl #24
 800164c:	080016c9 	stmdaeq	r0, {r0, r3, r6, r7, r9, sl, ip}
 8001650:	08008d24 	stmdaeq	r0, {r2, r5, r8, sl, fp, pc}
 8001654:	20003000 	andcs	r3, r0, r0
 8001658:	20001630 	andcs	r1, r0, r0, lsr r6
 800165c:	0800149d 	stmdaeq	r0, {r0, r2, r3, r4, r7, sl, ip}
 8001660:	20001a30 	andcs	r1, r0, r0, lsr sl
 8001664:	08008d3c 	stmdaeq	r0, {r2, r3, r4, r5, r8, sl, fp, pc}

08001668 <Task_LogInfo>:
 8001668:	b508      	push	{r3, lr}
 800166a:	f006 fbbd 	bl	8007de8 <Charge_GetPercent>
 800166e:	f006 fbcb 	bl	8007e08 <EEPROM_SetCharge>
 8001672:	2003      	movs	r0, #3
 8001674:	f7ff fd82 	bl	800117c <RTOS_BPS_DelaySecs>
 8001678:	e7f7      	b.n	800166a <Task_LogInfo+0x2>
 800167a:	bf00      	nop

0800167c <Task_PetWDog>:
 800167c:	b508      	push	{r3, lr}
 800167e:	2000      	movs	r0, #0
 8001680:	f002 fe26 	bl	80042d0 <BSP_WDTimer_Init>
 8001684:	f002 fe48 	bl	8004318 <BSP_WDTimer_Start>
 8001688:	4d0d      	ldr	r5, [pc, #52]	@ (80016c0 <Task_PetWDog+0x44>)
 800168a:	4c0e      	ldr	r4, [pc, #56]	@ (80016c4 <Task_PetWDog+0x48>)
 800168c:	2600      	movs	r6, #0
 800168e:	4620      	mov	r0, r4
 8001690:	2100      	movs	r1, #0
 8001692:	f7ff fd53 	bl	800113c <RTOS_BPS_MutexPend>
 8001696:	782b      	ldrb	r3, [r5, #0]
 8001698:	f003 0303 	and.w	r3, r3, #3
 800169c:	2b03      	cmp	r3, #3
 800169e:	d105      	bne.n	80016ac <Task_PetWDog+0x30>
 80016a0:	f002 fe42 	bl	8004328 <BSP_WDTimer_Reset>
 80016a4:	2000      	movs	r0, #0
 80016a6:	f001 fdfb 	bl	80032a0 <BSP_Light_Toggle>
 80016aa:	702e      	strb	r6, [r5, #0]
 80016ac:	4620      	mov	r0, r4
 80016ae:	2100      	movs	r1, #0
 80016b0:	f7ff fd56 	bl	8001160 <RTOS_BPS_MutexPost>
 80016b4:	f44f 70fa 	mov.w	r0, #500	@ 0x1f4
 80016b8:	f7ff fd74 	bl	80011a4 <RTOS_BPS_DelayMs>
 80016bc:	e7e7      	b.n	800168e <Task_PetWDog+0x12>
 80016be:	bf00      	nop
 80016c0:	200039a8 	andcs	r3, r0, r8, lsr #19
 80016c4:	200039ac 	andcs	r3, r0, ip, lsr #19

080016c8 <Task_Print>:
 80016c8:	b5f8      	push	{r3, r4, r5, r6, r7, lr}
 80016ca:	4d14      	ldr	r5, [pc, #80]	@ (800171c <Task_Print+0x54>)
 80016cc:	f006 fd78 	bl	80081c0 <PQ_WaitForFlush>
 80016d0:	f006 fd70 	bl	80081b4 <PQ_GetNumWaiting>
 80016d4:	0a06      	lsrs	r6, r0, #8
 80016d6:	4607      	mov	r7, r0
 80016d8:	d013      	beq.n	8001702 <Task_Print+0x3a>
 80016da:	2400      	movs	r4, #0
 80016dc:	e001      	b.n	80016e2 <Task_Print+0x1a>
 80016de:	42b4      	cmp	r4, r6
 80016e0:	d00f      	beq.n	8001702 <Task_Print+0x3a>
 80016e2:	f44f 7180 	mov.w	r1, #256	@ 0x100
 80016e6:	4628      	mov	r0, r5
 80016e8:	3401      	adds	r4, #1
 80016ea:	f006 fd07 	bl	80080fc <PQ_Read>
 80016ee:	2800      	cmp	r0, #0
 80016f0:	d0f5      	beq.n	80016de <Task_Print+0x16>
 80016f2:	2200      	movs	r2, #0
 80016f4:	f44f 7180 	mov.w	r1, #256	@ 0x100
 80016f8:	4628      	mov	r0, r5
 80016fa:	f002 fc57 	bl	8003fac <BSP_UART_Write>
 80016fe:	42b4      	cmp	r4, r6
 8001700:	d1ef      	bne.n	80016e2 <Task_Print+0x1a>
 8001702:	b2ff      	uxtb	r7, r7
 8001704:	4639      	mov	r1, r7
 8001706:	4628      	mov	r0, r5
 8001708:	f006 fcf8 	bl	80080fc <PQ_Read>
 800170c:	2800      	cmp	r0, #0
 800170e:	d0dd      	beq.n	80016cc <Task_Print+0x4>
 8001710:	2200      	movs	r2, #0
 8001712:	4639      	mov	r1, r7
 8001714:	4628      	mov	r0, r5
 8001716:	f002 fc49 	bl	8003fac <BSP_UART_Write>
 800171a:	e7d7      	b.n	80016cc <Task_Print+0x4>
 800171c:	2000011c 	andcs	r0, r0, ip, lsl r1

08001720 <Task_VoltTempMonitor>:
 8001720:	e92d 4ff0 	stmdb	sp!, {r4, r5, r6, r7, r8, r9, sl, fp, lr}
 8001724:	b08d      	sub	sp, #52	@ 0x34
 8001726:	f006 fb73 	bl	8007e10 <Fans_Init>
 800172a:	48b7      	ldr	r0, [pc, #732]	@ (8001a08 <Task_VoltTempMonitor+0x2e8>)
 800172c:	f8df a2dc 	ldr.w	sl, [pc, #732]	@ 8001a0c <Task_VoltTempMonitor+0x2ec>
 8001730:	4eb7      	ldr	r6, [pc, #732]	@ (8001a10 <Task_VoltTempMonitor+0x2f0>)
 8001732:	f8df 92e0 	ldr.w	r9, [pc, #736]	@ 8001a14 <Task_VoltTempMonitor+0x2f4>
 8001736:	4cb8      	ldr	r4, [pc, #736]	@ (8001a18 <Task_VoltTempMonitor+0x2f8>)
 8001738:	f006 ffd8 	bl	80086ec <Voltage_Init>
 800173c:	48b2      	ldr	r0, [pc, #712]	@ (8001a08 <Task_VoltTempMonitor+0x2e8>)
 800173e:	f006 fd4f 	bl	80081e0 <Temperature_Init>
 8001742:	2300      	movs	r3, #0
 8001744:	e9cd 3307 	strd	r3, r3, [sp, #28]
 8001748:	e9cd 3301 	strd	r3, r3, [sp, #4]
 800174c:	9309      	str	r3, [sp, #36]	@ 0x24
 800174e:	f007 f83d 	bl	80087cc <Voltage_UpdateMeasurements>
 8001752:	f10d 002d 	add.w	r0, sp, #45	@ 0x2d
 8001756:	f007 f917 	bl	8008988 <Voltage_CheckStatus>
 800175a:	b168      	cbz	r0, 8001778 <Task_VoltTempMonitor+0x58>
 800175c:	f89d 302d 	ldrb.w	r3, [sp, #45]	@ 0x2d
 8001760:	2b01      	cmp	r3, #1
 8001762:	f000 814a 	beq.w	80019fa <Task_VoltTempMonitor+0x2da>
 8001766:	2b02      	cmp	r3, #2
 8001768:	d104      	bne.n	8001774 <Task_VoltTempMonitor+0x54>
 800176a:	4aac      	ldr	r2, [pc, #688]	@ (8001a1c <Task_VoltTempMonitor+0x2fc>)
 800176c:	8813      	ldrh	r3, [r2, #0]
 800176e:	f043 0302 	orr.w	r3, r3, #2
 8001772:	8013      	strh	r3, [r2, #0]
 8001774:	f006 fb7c 	bl	8007e70 <EnterFaultState>
 8001778:	4ba9      	ldr	r3, [pc, #676]	@ (8001a20 <Task_VoltTempMonitor+0x300>)
 800177a:	7819      	ldrb	r1, [r3, #0]
 800177c:	2900      	cmp	r1, #0
 800177e:	f000 8135 	beq.w	80019ec <Task_VoltTempMonitor+0x2cc>
 8001782:	f89d 502d 	ldrb.w	r5, [sp, #45]	@ 0x2d
 8001786:	4fa7      	ldr	r7, [pc, #668]	@ (8001a24 <Task_VoltTempMonitor+0x304>)
 8001788:	3d03      	subs	r5, #3
 800178a:	f10d 002e 	add.w	r0, sp, #46	@ 0x2e
 800178e:	bf18      	it	ne
 8001790:	2501      	movne	r5, #1
 8001792:	f005 ff21 	bl	80075d8 <OSTimeGet>
 8001796:	9b01      	ldr	r3, [sp, #4]
 8001798:	1ac3      	subs	r3, r0, r3
 800179a:	f10d 002e 	add.w	r0, sp, #46	@ 0x2e
 800179e:	9303      	str	r3, [sp, #12]
 80017a0:	f005 ff1a 	bl	80075d8 <OSTimeGet>
 80017a4:	f8da 3000 	ldr.w	r3, [sl]
 80017a8:	9001      	str	r0, [sp, #4]
 80017aa:	3301      	adds	r3, #1
 80017ac:	f8ca 3000 	str.w	r3, [sl]
 80017b0:	f04f 0800 	mov.w	r8, #0
 80017b4:	46bb      	mov	fp, r7
 80017b6:	fa5f f088 	uxtb.w	r0, r8
 80017ba:	f007 f947 	bl	8008a4c <Voltage_GetModuleMillivoltage>
 80017be:	f85b 3f04 	ldr.w	r3, [fp, #4]!
 80017c2:	f108 0801 	add.w	r8, r8, #1
 80017c6:	4403      	add	r3, r0
 80017c8:	f1b8 0f20 	cmp.w	r8, #32
 80017cc:	f8cb 3000 	str.w	r3, [fp]
 80017d0:	d1f1      	bne.n	80017b6 <Task_VoltTempMonitor+0x96>
 80017d2:	4b95      	ldr	r3, [pc, #596]	@ (8001a28 <Task_VoltTempMonitor+0x308>)
 80017d4:	7819      	ldrb	r1, [r3, #0]
 80017d6:	2900      	cmp	r1, #0
 80017d8:	f000 8101 	beq.w	80019de <Task_VoltTempMonitor+0x2be>
 80017dc:	f006 feca 	bl	8008574 <Temperature_UpdateAllMeasurements>
 80017e0:	f006 f9c4 	bl	8007b6c <Amps_IsCharging>
 80017e4:	f10d 012d 	add.w	r1, sp, #45	@ 0x2d
 80017e8:	f006 ff32 	bl	8008650 <Temperature_CheckStatus>
 80017ec:	2800      	cmp	r0, #0
 80017ee:	f040 80ee 	bne.w	80019ce <Task_VoltTempMonitor+0x2ae>
 80017f2:	4b8e      	ldr	r3, [pc, #568]	@ (8001a2c <Task_VoltTempMonitor+0x30c>)
 80017f4:	7819      	ldrb	r1, [r3, #0]
 80017f6:	2900      	cmp	r1, #0
 80017f8:	f000 80e2 	beq.w	80019c0 <Task_VoltTempMonitor+0x2a0>
 80017fc:	f89d 302d 	ldrb.w	r3, [sp, #45]	@ 0x2d
 8001800:	f10d 002e 	add.w	r0, sp, #46	@ 0x2e
 8001804:	2b03      	cmp	r3, #3
 8001806:	bf0c      	ite	eq
 8001808:	2500      	moveq	r5, #0
 800180a:	f005 0501 	andne.w	r5, r5, #1
 800180e:	9500      	str	r5, [sp, #0]
 8001810:	f005 fee2 	bl	80075d8 <OSTimeGet>
 8001814:	9b02      	ldr	r3, [sp, #8]
 8001816:	4d86      	ldr	r5, [pc, #536]	@ (8001a30 <Task_VoltTempMonitor+0x310>)
 8001818:	1ac3      	subs	r3, r0, r3
 800181a:	f10d 002e 	add.w	r0, sp, #46	@ 0x2e
 800181e:	9304      	str	r3, [sp, #16]
 8001820:	f005 feda 	bl	80075d8 <OSTimeGet>
 8001824:	6833      	ldr	r3, [r6, #0]
 8001826:	9002      	str	r0, [sp, #8]
 8001828:	3301      	adds	r3, #1
 800182a:	6033      	str	r3, [r6, #0]
 800182c:	f04f 0b00 	mov.w	fp, #0
 8001830:	46a8      	mov	r8, r5
 8001832:	fa5f f08b 	uxtb.w	r0, fp
 8001836:	f006 ff37 	bl	80086a8 <Temperature_GetSingleTempSensor>
 800183a:	f858 3f04 	ldr.w	r3, [r8, #4]!
 800183e:	f10b 0b01 	add.w	fp, fp, #1
 8001842:	4403      	add	r3, r0
 8001844:	f1bb 0f20 	cmp.w	fp, #32
 8001848:	f8c8 3000 	str.w	r3, [r8]
 800184c:	d1f1      	bne.n	8001832 <Task_VoltTempMonitor+0x112>
 800184e:	2008      	movs	r0, #8
 8001850:	f006 fae0 	bl	8007e14 <Fans_SetAll>
 8001854:	f007 f928 	bl	8008aa8 <Voltage_GetTotalPackVoltage>
 8001858:	9006      	str	r0, [sp, #24]
 800185a:	f007 f92b 	bl	8008ab4 <Voltage_GetMaxVoltage>
 800185e:	9005      	str	r0, [sp, #20]
 8001860:	f007 f92e 	bl	8008ac0 <Voltage_GetMinVoltage>
 8001864:	9a03      	ldr	r2, [sp, #12]
 8001866:	9b05      	ldr	r3, [sp, #20]
 8001868:	f44f 7b7a 	mov.w	fp, #1000	@ 0x3e8
 800186c:	fb0b f102 	mul.w	r1, fp, r2
 8001870:	4a70      	ldr	r2, [pc, #448]	@ (8001a34 <Task_VoltTempMonitor+0x314>)
 8001872:	1a1b      	subs	r3, r3, r0
 8001874:	fba2 0101 	umull	r0, r1, r2, r1
 8001878:	486f      	ldr	r0, [pc, #444]	@ (8001a38 <Task_VoltTempMonitor+0x318>)
 800187a:	9a06      	ldr	r2, [sp, #24]
 800187c:	0949      	lsrs	r1, r1, #5
 800187e:	81c1      	strh	r1, [r0, #14]
 8001880:	6881      	ldr	r1, [r0, #8]
 8001882:	f362 0117 	bfi	r1, r2, #0, #24
 8001886:	6081      	str	r1, [r0, #8]
 8001888:	72c3      	strb	r3, [r0, #11]
 800188a:	f3c3 230f 	ubfx	r3, r3, #8, #16
 800188e:	8183      	strh	r3, [r0, #12]
 8001890:	c80f      	ldmia	r0, {r0, r1, r2, r3}
 8001892:	f006 f9c5 	bl	8007c20 <CAN_TransmitQueue_Post>
 8001896:	f006 ff23 	bl	80086e0 <Temperature_GetTotalPackAvgTemperature>
 800189a:	9005      	str	r0, [sp, #20]
 800189c:	f006 ff14 	bl	80086c8 <Temperature_GetMaxTemperature>
 80018a0:	9003      	str	r0, [sp, #12]
 80018a2:	f006 ff17 	bl	80086d4 <Temperature_GetMinTemperature>
 80018a6:	9a03      	ldr	r2, [sp, #12]
 80018a8:	9b04      	ldr	r3, [sp, #16]
 80018aa:	4964      	ldr	r1, [pc, #400]	@ (8001a3c <Task_VoltTempMonitor+0x31c>)
 80018ac:	1a10      	subs	r0, r2, r0
 80018ae:	4a61      	ldr	r2, [pc, #388]	@ (8001a34 <Task_VoltTempMonitor+0x314>)
 80018b0:	fb0b f803 	mul.w	r8, fp, r3
 80018b4:	fba2 3808 	umull	r3, r8, r2, r8
 80018b8:	9b05      	ldr	r3, [sp, #20]
 80018ba:	688a      	ldr	r2, [r1, #8]
 80018bc:	f363 0217 	bfi	r2, r3, #0, #24
 80018c0:	608a      	str	r2, [r1, #8]
 80018c2:	ea4f 1858 	mov.w	r8, r8, lsr #5
 80018c6:	72c8      	strb	r0, [r1, #11]
 80018c8:	f3c0 200f 	ubfx	r0, r0, #8, #16
 80018cc:	f8a1 800e 	strh.w	r8, [r1, #14]
 80018d0:	8188      	strh	r0, [r1, #12]
 80018d2:	c90f      	ldmia	r1, {r0, r1, r2, r3}
 80018d4:	f006 f9a4 	bl	8007c20 <CAN_TransmitQueue_Post>
 80018d8:	9b00      	ldr	r3, [sp, #0]
 80018da:	b13b      	cbz	r3, 80018ec <Task_VoltTempMonitor+0x1cc>
 80018dc:	f10d 002e 	add.w	r0, sp, #46	@ 0x2e
 80018e0:	f005 fe7a 	bl	80075d8 <OSTimeGet>
 80018e4:	9b09      	ldr	r3, [sp, #36]	@ 0x24
 80018e6:	1ac3      	subs	r3, r0, r3
 80018e8:	2b14      	cmp	r3, #20
 80018ea:	d90a      	bls.n	8001902 <Task_VoltTempMonitor+0x1e2>
 80018ec:	4a54      	ldr	r2, [pc, #336]	@ (8001a40 <Task_VoltTempMonitor+0x320>)
 80018ee:	9b00      	ldr	r3, [sp, #0]
 80018f0:	7213      	strb	r3, [r2, #8]
 80018f2:	ca0f      	ldmia	r2, {r0, r1, r2, r3}
 80018f4:	f006 f994 	bl	8007c20 <CAN_TransmitQueue_Post>
 80018f8:	f10d 002e 	add.w	r0, sp, #46	@ 0x2e
 80018fc:	f005 fe6c 	bl	80075d8 <OSTimeGet>
 8001900:	9009      	str	r0, [sp, #36]	@ 0x24
 8001902:	f10d 002e 	add.w	r0, sp, #46	@ 0x2e
 8001906:	f005 fe67 	bl	80075d8 <OSTimeGet>
 800190a:	9b08      	ldr	r3, [sp, #32]
 800190c:	1ac0      	subs	r0, r0, r3
 800190e:	2832      	cmp	r0, #50	@ 0x32
 8001910:	d833      	bhi.n	800197a <Task_VoltTempMonitor+0x25a>
 8001912:	f10d 002e 	add.w	r0, sp, #46	@ 0x2e
 8001916:	f005 fe5f 	bl	80075d8 <OSTimeGet>
 800191a:	9b07      	ldr	r3, [sp, #28]
 800191c:	1ac0      	subs	r0, r0, r3
 800191e:	2832      	cmp	r0, #50	@ 0x32
 8001920:	d91a      	bls.n	8001958 <Task_VoltTempMonitor+0x238>
 8001922:	2700      	movs	r7, #0
 8001924:	6832      	ldr	r2, [r6, #0]
 8001926:	7127      	strb	r7, [r4, #4]
 8001928:	f855 3f04 	ldr.w	r3, [r5, #4]!
 800192c:	fb93 f3f2 	sdiv	r3, r3, r2
 8001930:	60a3      	str	r3, [r4, #8]
 8001932:	e894 000f 	ldmia.w	r4, {r0, r1, r2, r3}
 8001936:	3701      	adds	r7, #1
 8001938:	f006 f972 	bl	8007c20 <CAN_TransmitQueue_Post>
 800193c:	2f20      	cmp	r7, #32
 800193e:	d1f1      	bne.n	8001924 <Task_VoltTempMonitor+0x204>
 8001940:	f10d 002e 	add.w	r0, sp, #46	@ 0x2e
 8001944:	f005 fe48 	bl	80075d8 <OSTimeGet>
 8001948:	2300      	movs	r3, #0
 800194a:	9007      	str	r0, [sp, #28]
 800194c:	2280      	movs	r2, #128	@ 0x80
 800194e:	483d      	ldr	r0, [pc, #244]	@ (8001a44 <Task_VoltTempMonitor+0x324>)
 8001950:	6033      	str	r3, [r6, #0]
 8001952:	4619      	mov	r1, r3
 8001954:	f7fe fdce 	bl	80004f4 <memset>
 8001958:	483b      	ldr	r0, [pc, #236]	@ (8001a48 <Task_VoltTempMonitor+0x328>)
 800195a:	2100      	movs	r1, #0
 800195c:	f7ff fbee 	bl	800113c <RTOS_BPS_MutexPend>
 8001960:	4a3a      	ldr	r2, [pc, #232]	@ (8001a4c <Task_VoltTempMonitor+0x32c>)
 8001962:	4839      	ldr	r0, [pc, #228]	@ (8001a48 <Task_VoltTempMonitor+0x328>)
 8001964:	7813      	ldrb	r3, [r2, #0]
 8001966:	2100      	movs	r1, #0
 8001968:	f043 0301 	orr.w	r3, r3, #1
 800196c:	7013      	strb	r3, [r2, #0]
 800196e:	f7ff fbf7 	bl	8001160 <RTOS_BPS_MutexPost>
 8001972:	2014      	movs	r0, #20
 8001974:	f7ff fc16 	bl	80011a4 <RTOS_BPS_DelayMs>
 8001978:	e6e9      	b.n	800174e <Task_VoltTempMonitor+0x2e>
 800197a:	f04f 0800 	mov.w	r8, #0
 800197e:	f8da 2000 	ldr.w	r2, [sl]
 8001982:	f889 8004 	strb.w	r8, [r9, #4]
 8001986:	f857 3f04 	ldr.w	r3, [r7, #4]!
 800198a:	fbb3 f3f2 	udiv	r3, r3, r2
 800198e:	f8c9 3008 	str.w	r3, [r9, #8]
 8001992:	e899 000f 	ldmia.w	r9, {r0, r1, r2, r3}
 8001996:	f108 0801 	add.w	r8, r8, #1
 800199a:	f006 f941 	bl	8007c20 <CAN_TransmitQueue_Post>
 800199e:	f1b8 0f20 	cmp.w	r8, #32
 80019a2:	d1ec      	bne.n	800197e <Task_VoltTempMonitor+0x25e>
 80019a4:	f10d 002e 	add.w	r0, sp, #46	@ 0x2e
 80019a8:	f005 fe16 	bl	80075d8 <OSTimeGet>
 80019ac:	2300      	movs	r3, #0
 80019ae:	9008      	str	r0, [sp, #32]
 80019b0:	2280      	movs	r2, #128	@ 0x80
 80019b2:	4619      	mov	r1, r3
 80019b4:	4826      	ldr	r0, [pc, #152]	@ (8001a50 <Task_VoltTempMonitor+0x330>)
 80019b6:	f8ca 3000 	str.w	r3, [sl]
 80019ba:	f7fe fd9b 	bl	80004f4 <memset>
 80019be:	e7a8      	b.n	8001912 <Task_VoltTempMonitor+0x1f2>
 80019c0:	4824      	ldr	r0, [pc, #144]	@ (8001a54 <Task_VoltTempMonitor+0x334>)
 80019c2:	f7ff fb9f 	bl	8001104 <RTOS_BPS_SemPost>
 80019c6:	4a19      	ldr	r2, [pc, #100]	@ (8001a2c <Task_VoltTempMonitor+0x30c>)
 80019c8:	2301      	movs	r3, #1
 80019ca:	7013      	strb	r3, [r2, #0]
 80019cc:	e716      	b.n	80017fc <Task_VoltTempMonitor+0xdc>
 80019ce:	4a13      	ldr	r2, [pc, #76]	@ (8001a1c <Task_VoltTempMonitor+0x2fc>)
 80019d0:	8813      	ldrh	r3, [r2, #0]
 80019d2:	f043 0304 	orr.w	r3, r3, #4
 80019d6:	8013      	strh	r3, [r2, #0]
 80019d8:	f006 fa4a 	bl	8007e70 <EnterFaultState>
 80019dc:	e709      	b.n	80017f2 <Task_VoltTempMonitor+0xd2>
 80019de:	481d      	ldr	r0, [pc, #116]	@ (8001a54 <Task_VoltTempMonitor+0x334>)
 80019e0:	f7ff fb90 	bl	8001104 <RTOS_BPS_SemPost>
 80019e4:	4a10      	ldr	r2, [pc, #64]	@ (8001a28 <Task_VoltTempMonitor+0x308>)
 80019e6:	2301      	movs	r3, #1
 80019e8:	7013      	strb	r3, [r2, #0]
 80019ea:	e6f7      	b.n	80017dc <Task_VoltTempMonitor+0xbc>
 80019ec:	4819      	ldr	r0, [pc, #100]	@ (8001a54 <Task_VoltTempMonitor+0x334>)
 80019ee:	f7ff fb89 	bl	8001104 <RTOS_BPS_SemPost>
 80019f2:	4a0b      	ldr	r2, [pc, #44]	@ (8001a20 <Task_VoltTempMonitor+0x300>)
 80019f4:	2301      	movs	r3, #1
 80019f6:	7013      	strb	r3, [r2, #0]
 80019f8:	e6c3      	b.n	8001782 <Task_VoltTempMonitor+0x62>
 80019fa:	4a08      	ldr	r2, [pc, #32]	@ (8001a1c <Task_VoltTempMonitor+0x2fc>)
 80019fc:	8813      	ldrh	r3, [r2, #0]
 80019fe:	f043 0301 	orr.w	r3, r3, #1
 8001a02:	8013      	strh	r3, [r2, #0]
 8001a04:	e6b6      	b.n	8001774 <Task_VoltTempMonitor+0x54>
 8001a06:	bf00      	nop
 8001a08:	20002470 	andcs	r2, r0, r0, ror r4
 8001a0c:	200002a8 	andcs	r0, r0, r8, lsr #5
 8001a10:	20000220 	andcs	r0, r0, r0, lsr #4
 8001a14:	20000084 	andcs	r0, r0, r4, lsl #1
 8001a18:	20000074 	andcs	r0, r0, r4, ror r0
 8001a1c:	2000162c 	andcs	r1, r0, ip, lsr #12
 8001a20:	200002a4 	andcs	r0, r0, r4, lsr #5
 8001a24:	200002a8 	andcs	r0, r0, r8, lsr #5
 8001a28:	2000021c 	andcs	r0, r0, ip, lsl r2
 8001a2c:	2000021d 	andcs	r0, r0, sp, lsl r2
 8001a30:	20000220 	andcs	r0, r0, r0, lsr #4
 8001a34:	51eb851f 	mvnpl	r8, pc, lsl r5
 8001a38:	200000b4 	strhcs	r0, [r0], -r4
 8001a3c:	200000a4 	andcs	r0, r0, r4, lsr #1
 8001a40:	20000094 	mulcs	r0, r4, r0
 8001a44:	20000224 	andcs	r0, r0, r4, lsr #4
 8001a48:	200039ac 	andcs	r3, r0, ip, lsr #19
 8001a4c:	200039a8 	andcs	r3, r0, r8, lsr #19
 8001a50:	200002ac 	andcs	r0, r0, ip, lsr #5
 8001a54:	200030c0 	andcs	r3, r0, r0, asr #1

08001a58 <assertOSError>:
 8001a58:	b900      	cbnz	r0, 8001a5c <assertOSError+0x4>
 8001a5a:	4770      	bx	lr
 8001a5c:	b508      	push	{r3, lr}
 8001a5e:	f246 13b0 	movw	r3, #25008	@ 0x61b0
 8001a62:	4298      	cmp	r0, r3
 8001a64:	d100      	bne.n	8001a68 <assertOSError+0x10>
 8001a66:	bd08      	pop	{r3, pc}
 8001a68:	4a05      	ldr	r2, [pc, #20]	@ (8001a80 <assertOSError+0x28>)
 8001a6a:	8813      	ldrh	r3, [r2, #0]
 8001a6c:	f043 0340 	orr.w	r3, r3, #64	@ 0x40
 8001a70:	8013      	strh	r3, [r2, #0]
 8001a72:	f006 f9fd 	bl	8007e70 <EnterFaultState>
 8001a76:	e8bd 4008 	ldmia.w	sp!, {r3, lr}
 8001a7a:	f006 b9f9 	b.w	8007e70 <EnterFaultState>
 8001a7e:	bf00      	nop
 8001a80:	2000162c 	andcs	r1, r0, ip, lsr #12

08001a84 <CANbus_Release>:
 8001a84:	4801      	ldr	r0, [pc, #4]	@ (8001a8c <CANbus_Release+0x8>)
 8001a86:	2100      	movs	r1, #0
 8001a88:	f7ff bb3c 	b.w	8001104 <RTOS_BPS_SemPost>
 8001a8c:	200039dc 	ldrdcs	r3, [r0], -ip

08001a90 <CANbus_CountIncoming>:
 8001a90:	4801      	ldr	r0, [pc, #4]	@ (8001a98 <CANbus_CountIncoming+0x8>)
 8001a92:	2100      	movs	r1, #0
 8001a94:	f7ff bb36 	b.w	8001104 <RTOS_BPS_SemPost>
 8001a98:	20003a04 	andcs	r3, r0, r4, lsl #20

08001a9c <CANbus_Init>:
 8001a9c:	b5f0      	push	{r4, r5, r6, r7, lr}
 8001a9e:	4606      	mov	r6, r0
 8001aa0:	b083      	sub	sp, #12
 8001aa2:	b149      	cbz	r1, 8001ab8 <CANbus_Init+0x1c>
 8001aa4:	2100      	movs	r1, #0
 8001aa6:	4603      	mov	r3, r0
 8001aa8:	e9cd 1100 	strd	r1, r1, [sp]
 8001aac:	2201      	movs	r2, #1
 8001aae:	4608      	mov	r0, r1
 8001ab0:	f001 fa02 	bl	8002eb8 <BSP_CAN_Init>
 8001ab4:	b003      	add	sp, #12
 8001ab6:	bdf0      	pop	{r4, r5, r6, r7, pc}
 8001ab8:	4614      	mov	r4, r2
 8001aba:	4a12      	ldr	r2, [pc, #72]	@ (8001b04 <CANbus_Init+0x68>)
 8001abc:	461d      	mov	r5, r3
 8001abe:	7813      	ldrb	r3, [r2, #0]
 8001ac0:	f003 07ff 	and.w	r7, r3, #255	@ 0xff
 8001ac4:	2b00      	cmp	r3, #0
 8001ac6:	d1f5      	bne.n	8001ab4 <CANbus_Init+0x18>
 8001ac8:	2301      	movs	r3, #1
 8001aca:	490f      	ldr	r1, [pc, #60]	@ (8001b08 <CANbus_Init+0x6c>)
 8001acc:	480f      	ldr	r0, [pc, #60]	@ (8001b0c <CANbus_Init+0x70>)
 8001ace:	7013      	strb	r3, [r2, #0]
 8001ad0:	f7ff fb26 	bl	8001120 <RTOS_BPS_MutexCreate>
 8001ad4:	490e      	ldr	r1, [pc, #56]	@ (8001b10 <CANbus_Init+0x74>)
 8001ad6:	480f      	ldr	r0, [pc, #60]	@ (8001b14 <CANbus_Init+0x78>)
 8001ad8:	f7ff fb22 	bl	8001120 <RTOS_BPS_MutexCreate>
 8001adc:	490e      	ldr	r1, [pc, #56]	@ (8001b18 <CANbus_Init+0x7c>)
 8001ade:	480f      	ldr	r0, [pc, #60]	@ (8001b1c <CANbus_Init+0x80>)
 8001ae0:	2203      	movs	r2, #3
 8001ae2:	f7ff fae5 	bl	80010b0 <RTOS_BPS_SemCreate>
 8001ae6:	463a      	mov	r2, r7
 8001ae8:	490d      	ldr	r1, [pc, #52]	@ (8001b20 <CANbus_Init+0x84>)
 8001aea:	480e      	ldr	r0, [pc, #56]	@ (8001b24 <CANbus_Init+0x88>)
 8001aec:	f7ff fae0 	bl	80010b0 <RTOS_BPS_SemCreate>
 8001af0:	e9cd 4500 	strd	r4, r5, [sp]
 8001af4:	490c      	ldr	r1, [pc, #48]	@ (8001b28 <CANbus_Init+0x8c>)
 8001af6:	480d      	ldr	r0, [pc, #52]	@ (8001b2c <CANbus_Init+0x90>)
 8001af8:	4633      	mov	r3, r6
 8001afa:	463a      	mov	r2, r7
 8001afc:	f001 f9dc 	bl	8002eb8 <BSP_CAN_Init>
 8001b00:	b003      	add	sp, #12
 8001b02:	bdf0      	pop	{r4, r5, r6, r7, pc}
 8001b04:	20003a8c 	andcs	r3, r0, ip, lsl #21
 8001b08:	0800938c 	stmdaeq	r0, {r2, r3, r7, r8, r9, ip, pc}
 8001b0c:	20003a5c 	andcs	r3, r0, ip, asr sl
 8001b10:	08009398 	stmdaeq	r0, {r3, r4, r7, r8, r9, ip, pc}
 8001b14:	20003a2c 	andcs	r3, r0, ip, lsr #20
 8001b18:	080093a4 	stmdaeq	r0, {r2, r5, r7, r8, r9, ip, pc}
 8001b1c:	200039dc 	ldrdcs	r3, [r0], -ip
 8001b20:	080093bc 	stmdaeq	r0, {r2, r3, r4, r5, r7, r8, r9, ip, pc}
 8001b24:	20003a04 	andcs	r3, r0, r4, lsl #20
 8001b28:	08001a85 	stmdaeq	r0, {r0, r2, r7, r9, fp, ip}
 8001b2c:	08001a91 	stmdaeq	r0, {r0, r4, r7, r9, fp, ip}

08001b30 <CANbus_IsInitialized>:
 8001b30:	4b01      	ldr	r3, [pc, #4]	@ (8001b38 <CANbus_IsInitialized+0x8>)
 8001b32:	7818      	ldrb	r0, [r3, #0]
 8001b34:	4770      	bx	lr
 8001b36:	bf00      	nop
 8001b38:	20003a8c 	andcs	r3, r0, ip, lsl #21

08001b3c <CANbus_DeInit>:
 8001b3c:	f001 ba9a 	b.w	8003074 <BSP_CAN_DeInit>

08001b40 <CANbus_SendMsg_FaultState>:
 8001b40:	b570      	push	{r4, r5, r6, lr}
 8001b42:	b086      	sub	sp, #24
 8001b44:	4605      	mov	r5, r0
 8001b46:	a801      	add	r0, sp, #4
 8001b48:	e880 000e 	stmia.w	r0, {r1, r2, r3}
 8001b4c:	4b10      	ldr	r3, [pc, #64]	@ (8001b90 <CANbus_SendMsg_FaultState+0x50>)
 8001b4e:	5d5c      	ldrb	r4, [r3, r5]
 8001b50:	f004 0301 	and.w	r3, r4, #1
 8001b54:	0862      	lsrs	r2, r4, #1
 8001b56:	eb03 0454 	add.w	r4, r3, r4, lsr #1
 8001b5a:	b19b      	cbz	r3, 8001b84 <CANbus_SendMsg_FaultState+0x44>
 8001b5c:	f89d 3004 	ldrb.w	r3, [sp, #4]
 8001b60:	f88d 3010 	strb.w	r3, [sp, #16]
 8001b64:	a902      	add	r1, sp, #8
 8001b66:	f10d 0011 	add.w	r0, sp, #17
 8001b6a:	f7fe fc29 	bl	80003c0 <memcpy>
 8001b6e:	ae04      	add	r6, sp, #16
 8001b70:	4622      	mov	r2, r4
 8001b72:	4631      	mov	r1, r6
 8001b74:	4628      	mov	r0, r5
 8001b76:	f001 fa83 	bl	8003080 <BSP_CAN_Write>
 8001b7a:	2800      	cmp	r0, #0
 8001b7c:	d0f8      	beq.n	8001b70 <CANbus_SendMsg_FaultState+0x30>
 8001b7e:	2001      	movs	r0, #1
 8001b80:	b006      	add	sp, #24
 8001b82:	bd70      	pop	{r4, r5, r6, pc}
 8001b84:	ae04      	add	r6, sp, #16
 8001b86:	a902      	add	r1, sp, #8
 8001b88:	4630      	mov	r0, r6
 8001b8a:	f7fe fc19 	bl	80003c0 <memcpy>
 8001b8e:	e7ef      	b.n	8001b70 <CANbus_SendMsg_FaultState+0x30>
 8001b90:	08008d48 	stmdaeq	r0, {r3, r6, r8, sl, fp, pc}

08001b94 <CANbus_BlockAndSend>:
 8001b94:	b570      	push	{r4, r5, r6, lr}
 8001b96:	b08a      	sub	sp, #40	@ 0x28
 8001b98:	ac01      	add	r4, sp, #4
 8001b9a:	e884 000e 	stmia.w	r4, {r1, r2, r3}
 8001b9e:	4605      	mov	r5, r0
 8001ba0:	2100      	movs	r1, #0
 8001ba2:	481c      	ldr	r0, [pc, #112]	@ (8001c14 <CANbus_BlockAndSend+0x80>)
 8001ba4:	f7ff fa92 	bl	80010cc <RTOS_BPS_SemPend>
 8001ba8:	e894 0007 	ldmia.w	r4, {r0, r1, r2}
 8001bac:	4b1a      	ldr	r3, [pc, #104]	@ (8001c18 <CANbus_BlockAndSend+0x84>)
 8001bae:	5d5b      	ldrb	r3, [r3, r5]
 8001bb0:	ac0a      	add	r4, sp, #40	@ 0x28
 8001bb2:	e904 0007 	stmdb	r4, {r0, r1, r2}
 8001bb6:	f003 0101 	and.w	r1, r3, #1
 8001bba:	085a      	lsrs	r2, r3, #1
 8001bbc:	eb01 0453 	add.w	r4, r1, r3, lsr #1
 8001bc0:	b1d9      	cbz	r1, 8001bfa <CANbus_BlockAndSend+0x66>
 8001bc2:	f89d 301c 	ldrb.w	r3, [sp, #28]
 8001bc6:	f88d 3014 	strb.w	r3, [sp, #20]
 8001bca:	a908      	add	r1, sp, #32
 8001bcc:	f10d 0015 	add.w	r0, sp, #21
 8001bd0:	f7fe fbf6 	bl	80003c0 <memcpy>
 8001bd4:	ae05      	add	r6, sp, #20
 8001bd6:	4811      	ldr	r0, [pc, #68]	@ (8001c1c <CANbus_BlockAndSend+0x88>)
 8001bd8:	2100      	movs	r1, #0
 8001bda:	f7ff faaf 	bl	800113c <RTOS_BPS_MutexPend>
 8001bde:	4622      	mov	r2, r4
 8001be0:	4631      	mov	r1, r6
 8001be2:	4628      	mov	r0, r5
 8001be4:	f001 fa4c 	bl	8003080 <BSP_CAN_Write>
 8001be8:	2100      	movs	r1, #0
 8001bea:	4604      	mov	r4, r0
 8001bec:	480b      	ldr	r0, [pc, #44]	@ (8001c1c <CANbus_BlockAndSend+0x88>)
 8001bee:	f7ff fab7 	bl	8001160 <RTOS_BPS_MutexPost>
 8001bf2:	b144      	cbz	r4, 8001c06 <CANbus_BlockAndSend+0x72>
 8001bf4:	4620      	mov	r0, r4
 8001bf6:	b00a      	add	sp, #40	@ 0x28
 8001bf8:	bd70      	pop	{r4, r5, r6, pc}
 8001bfa:	ae05      	add	r6, sp, #20
 8001bfc:	a908      	add	r1, sp, #32
 8001bfe:	4630      	mov	r0, r6
 8001c00:	f7fe fbde 	bl	80003c0 <memcpy>
 8001c04:	e7e7      	b.n	8001bd6 <CANbus_BlockAndSend+0x42>
 8001c06:	4621      	mov	r1, r4
 8001c08:	4802      	ldr	r0, [pc, #8]	@ (8001c14 <CANbus_BlockAndSend+0x80>)
 8001c0a:	f7ff fa7b 	bl	8001104 <RTOS_BPS_SemPost>
 8001c0e:	4620      	mov	r0, r4
 8001c10:	b00a      	add	sp, #40	@ 0x28
 8001c12:	bd70      	pop	{r4, r5, r6, pc}
 8001c14:	200039dc 	ldrdcs	r3, [r0], -ip
 8001c18:	08008d48 	stmdaeq	r0, {r3, r6, r8, sl, fp, pc}
 8001c1c:	20003a5c 	andcs	r3, r0, ip, asr sl

08001c20 <CANbus_WaitToReceive>:
 8001c20:	b5f0      	push	{r4, r5, r6, r7, lr}
 8001c22:	460c      	mov	r4, r1
 8001c24:	b083      	sub	sp, #12
 8001c26:	2100      	movs	r1, #0
 8001c28:	4606      	mov	r6, r0
 8001c2a:	4813      	ldr	r0, [pc, #76]	@ (8001c78 <CANbus_WaitToReceive+0x58>)
 8001c2c:	f7ff fa4e 	bl	80010cc <RTOS_BPS_SemPend>
 8001c30:	1d27      	adds	r7, r4, #4
 8001c32:	4812      	ldr	r0, [pc, #72]	@ (8001c7c <CANbus_WaitToReceive+0x5c>)
 8001c34:	2100      	movs	r1, #0
 8001c36:	f7ff fa81 	bl	800113c <RTOS_BPS_MutexPend>
 8001c3a:	4639      	mov	r1, r7
 8001c3c:	a801      	add	r0, sp, #4
 8001c3e:	f001 fa53 	bl	80030e8 <BSP_CAN_Read>
 8001c42:	2100      	movs	r1, #0
 8001c44:	4605      	mov	r5, r0
 8001c46:	480d      	ldr	r0, [pc, #52]	@ (8001c7c <CANbus_WaitToReceive+0x5c>)
 8001c48:	f7ff fa8a 	bl	8001160 <RTOS_BPS_MutexPost>
 8001c4c:	b12d      	cbz	r5, 8001c5a <CANbus_WaitToReceive+0x3a>
 8001c4e:	9b01      	ldr	r3, [sp, #4]
 8001c50:	4a0b      	ldr	r2, [pc, #44]	@ (8001c80 <CANbus_WaitToReceive+0x60>)
 8001c52:	8033      	strh	r3, [r6, #0]
 8001c54:	5cd2      	ldrb	r2, [r2, r3]
 8001c56:	07d3      	lsls	r3, r2, #31
 8001c58:	d402      	bmi.n	8001c60 <CANbus_WaitToReceive+0x40>
 8001c5a:	4628      	mov	r0, r5
 8001c5c:	b003      	add	sp, #12
 8001c5e:	bdf0      	pop	{r4, r5, r6, r7, pc}
 8001c60:	4620      	mov	r0, r4
 8001c62:	7923      	ldrb	r3, [r4, #4]
 8001c64:	f800 3b05 	strb.w	r3, [r0], #5
 8001c68:	0852      	lsrs	r2, r2, #1
 8001c6a:	4639      	mov	r1, r7
 8001c6c:	f7fe fba8 	bl	80003c0 <memcpy>
 8001c70:	4628      	mov	r0, r5
 8001c72:	b003      	add	sp, #12
 8001c74:	bdf0      	pop	{r4, r5, r6, r7, pc}
 8001c76:	bf00      	nop
 8001c78:	20003a04 	andcs	r3, r0, r4, lsl #20
 8001c7c:	20003a2c 	andcs	r3, r0, ip, lsr #20
 8001c80:	08008d48 	stmdaeq	r0, {r3, r6, r8, sl, fp, pc}

08001c84 <LTC2315_Init>:
 8001c84:	b500      	push	{lr}
 8001c86:	b083      	sub	sp, #12
 8001c88:	466b      	mov	r3, sp
 8001c8a:	2201      	movs	r2, #1
 8001c8c:	e883 0003 	stmia.w	r3, {r0, r1}
 8001c90:	4610      	mov	r0, r2
 8001c92:	4619      	mov	r1, r3
 8001c94:	f001 fca0 	bl	80035d8 <BSP_SPI_Init>
 8001c98:	2100      	movs	r1, #0
 8001c9a:	2001      	movs	r0, #1
 8001c9c:	f001 ff44 	bl	8003b28 <BSP_SPI_SetStateCS>
 8001ca0:	f44f 70fa 	mov.w	r0, #500	@ 0x1f4
 8001ca4:	f7ff fa92 	bl	80011cc <RTOS_BPS_DelayUs>
 8001ca8:	2101      	movs	r1, #1
 8001caa:	4608      	mov	r0, r1
 8001cac:	f001 ff3c 	bl	8003b28 <BSP_SPI_SetStateCS>
 8001cb0:	2096      	movs	r0, #150	@ 0x96
 8001cb2:	f7ff fa8b 	bl	80011cc <RTOS_BPS_DelayUs>
 8001cb6:	b003      	add	sp, #12
 8001cb8:	f85d fb04 	ldr.w	pc, [sp], #4

08001cbc <LTC2315_Read>:
 8001cbc:	b530      	push	{r4, r5, lr}
 8001cbe:	b083      	sub	sp, #12
 8001cc0:	f64f 73ff 	movw	r3, #65535	@ 0xffff
 8001cc4:	4d31      	ldr	r5, [pc, #196]	@ (8001d8c <LTC2315_Read+0xd0>)
 8001cc6:	f8ad 3004 	strh.w	r3, [sp, #4]
 8001cca:	2401      	movs	r4, #1
 8001ccc:	f10d 0006 	add.w	r0, sp, #6
 8001cd0:	f003 fb86 	bl	80053e0 <OSSchedLock>
 8001cd4:	f8bd 0006 	ldrh.w	r0, [sp, #6]
 8001cd8:	f7ff febe 	bl	8001a58 <assertOSError>
 8001cdc:	2100      	movs	r1, #0
 8001cde:	2001      	movs	r0, #1
 8001ce0:	f001 ff22 	bl	8003b28 <BSP_SPI_SetStateCS>
 8001ce4:	f44f 70fa 	mov.w	r0, #500	@ 0x1f4
 8001ce8:	f7ff fa70 	bl	80011cc <RTOS_BPS_DelayUs>
 8001cec:	2101      	movs	r1, #1
 8001cee:	4608      	mov	r0, r1
 8001cf0:	f001 ff1a 	bl	8003b28 <BSP_SPI_SetStateCS>
 8001cf4:	2096      	movs	r0, #150	@ 0x96
 8001cf6:	f7ff fa69 	bl	80011cc <RTOS_BPS_DelayUs>
 8001cfa:	2100      	movs	r1, #0
 8001cfc:	2001      	movs	r0, #1
 8001cfe:	f001 ff13 	bl	8003b28 <BSP_SPI_SetStateCS>
 8001d02:	2202      	movs	r2, #2
 8001d04:	a901      	add	r1, sp, #4
 8001d06:	2001      	movs	r0, #1
 8001d08:	f001 fe04 	bl	8003914 <BSP_SPI_Read>
 8001d0c:	b360      	cbz	r0, 8001d68 <LTC2315_Read+0xac>
 8001d0e:	2101      	movs	r1, #1
 8001d10:	4608      	mov	r0, r1
 8001d12:	f001 ff09 	bl	8003b28 <BSP_SPI_SetStateCS>
 8001d16:	f10d 0006 	add.w	r0, sp, #6
 8001d1a:	f003 fb87 	bl	800542c <OSSchedUnlock>
 8001d1e:	f8bd 0006 	ldrh.w	r0, [sp, #6]
 8001d22:	f7ff fe99 	bl	8001a58 <assertOSError>
 8001d26:	1e63      	subs	r3, r4, #1
 8001d28:	2b05      	cmp	r3, #5
 8001d2a:	d912      	bls.n	8001d52 <LTC2315_Read+0x96>
 8001d2c:	f89d 3004 	ldrb.w	r3, [sp, #4]
 8001d30:	f89d 0005 	ldrb.w	r0, [sp, #5]
 8001d34:	2bff      	cmp	r3, #255	@ 0xff
 8001d36:	d01e      	beq.n	8001d76 <LTC2315_Read+0xba>
 8001d38:	015b      	lsls	r3, r3, #5
 8001d3a:	ea43 03d0 	orr.w	r3, r3, r0, lsr #3
 8001d3e:	f3c3 000b 	ubfx	r0, r3, #0, #12
 8001d42:	b003      	add	sp, #12
 8001d44:	bd30      	pop	{r4, r5, pc}
 8001d46:	882b      	ldrh	r3, [r5, #0]
 8001d48:	f443 7380 	orr.w	r3, r3, #256	@ 0x100
 8001d4c:	802b      	strh	r3, [r5, #0]
 8001d4e:	f006 f88f 	bl	8007e70 <EnterFaultState>
 8001d52:	f89d 3004 	ldrb.w	r3, [sp, #4]
 8001d56:	f89d 0005 	ldrb.w	r0, [sp, #5]
 8001d5a:	3401      	adds	r4, #1
 8001d5c:	2bff      	cmp	r3, #255	@ 0xff
 8001d5e:	b2e4      	uxtb	r4, r4
 8001d60:	d1ea      	bne.n	8001d38 <LTC2315_Read+0x7c>
 8001d62:	28ff      	cmp	r0, #255	@ 0xff
 8001d64:	d0b2      	beq.n	8001ccc <LTC2315_Read+0x10>
 8001d66:	e008      	b.n	8001d7a <LTC2315_Read+0xbe>
 8001d68:	882b      	ldrh	r3, [r5, #0]
 8001d6a:	f443 7380 	orr.w	r3, r3, #256	@ 0x100
 8001d6e:	802b      	strh	r3, [r5, #0]
 8001d70:	f006 f87e 	bl	8007e70 <EnterFaultState>
 8001d74:	e7cb      	b.n	8001d0e <LTC2315_Read+0x52>
 8001d76:	28ff      	cmp	r0, #255	@ 0xff
 8001d78:	d0e5      	beq.n	8001d46 <LTC2315_Read+0x8a>
 8001d7a:	f44f 53ff 	mov.w	r3, #8160	@ 0x1fe0
 8001d7e:	ea43 03d0 	orr.w	r3, r3, r0, lsr #3
 8001d82:	f3c3 000b 	ubfx	r0, r3, #0, #12
 8001d86:	b003      	add	sp, #12
 8001d88:	bd30      	pop	{r4, r5, pc}
 8001d8a:	bf00      	nop
 8001d8c:	2000162c 	andcs	r1, r0, ip, lsr #12

08001d90 <LTC2315_GetCurrent>:
 8001d90:	b538      	push	{r3, r4, r5, lr}
 8001d92:	2408      	movs	r4, #8
 8001d94:	2500      	movs	r5, #0
 8001d96:	f7ff ff91 	bl	8001cbc <LTC2315_Read>
 8001d9a:	3c01      	subs	r4, #1
 8001d9c:	4405      	add	r5, r0
 8001d9e:	d1fa      	bne.n	8001d96 <LTC2315_GetCurrent+0x6>
 8001da0:	4b06      	ldr	r3, [pc, #24]	@ (8001dbc <LTC2315_GetCurrent+0x2c>)
 8001da2:	4a07      	ldr	r2, [pc, #28]	@ (8001dc0 <LTC2315_GetCurrent+0x30>)
 8001da4:	681b      	ldr	r3, [r3, #0]
 8001da6:	4807      	ldr	r0, [pc, #28]	@ (8001dc4 <LTC2315_GetCurrent+0x34>)
 8001da8:	ebc3 05e5 	rsb	r5, r3, r5, asr #3
 8001dac:	fb02 f505 	mul.w	r5, r2, r5
 8001db0:	fb80 3005 	smull	r3, r0, r0, r5
 8001db4:	17ed      	asrs	r5, r5, #31
 8001db6:	ebc5 10a0 	rsb	r0, r5, r0, asr #6
 8001dba:	bd38      	pop	{r3, r4, r5, pc}
 8001dbc:	20003a90 	mulcs	r0, r0, sl
 8001dc0:	00011e1a 	andeq	r1, r1, sl, lsl lr
 8001dc4:	10624dd3 	ldrdne	r4, [r2], #-211	@ 0xffffff2d	@ <UNPREDICTABLE>

08001dc8 <LTC2315_Calibrate>:
 8001dc8:	b538      	push	{r3, r4, r5, lr}
 8001dca:	2408      	movs	r4, #8
 8001dcc:	2500      	movs	r5, #0
 8001dce:	f7ff ff75 	bl	8001cbc <LTC2315_Read>
 8001dd2:	3c01      	subs	r4, #1
 8001dd4:	4405      	add	r5, r0
 8001dd6:	d1fa      	bne.n	8001dce <LTC2315_Calibrate+0x6>
 8001dd8:	4b01      	ldr	r3, [pc, #4]	@ (8001de0 <LTC2315_Calibrate+0x18>)
 8001dda:	10ed      	asrs	r5, r5, #3
 8001ddc:	601d      	str	r5, [r3, #0]
 8001dde:	bd38      	pop	{r3, r4, r5, pc}
 8001de0:	20003a90 	mulcs	r0, r0, sl

08001de4 <LTC6811_Pend>:
 8001de4:	4801      	ldr	r0, [pc, #4]	@ (8001dec <LTC6811_Pend+0x8>)
 8001de6:	2100      	movs	r1, #0
 8001de8:	f7ff b970 	b.w	80010cc <RTOS_BPS_SemPend>
 8001dec:	20003a94 	mulcs	r0, r4, sl

08001df0 <LTC6811_Post>:
 8001df0:	4801      	ldr	r0, [pc, #4]	@ (8001df8 <LTC6811_Post+0x8>)
 8001df2:	2100      	movs	r1, #0
 8001df4:	f7ff b986 	b.w	8001104 <RTOS_BPS_SemPost>
 8001df8:	20003a94 	mulcs	r0, r4, sl

08001dfc <LTC6811_Init>:
 8001dfc:	b570      	push	{r4, r5, r6, lr}
 8001dfe:	4d18      	ldr	r5, [pc, #96]	@ (8001e60 <LTC6811_Init+0x64>)
 8001e00:	782e      	ldrb	r6, [r5, #0]
 8001e02:	4604      	mov	r4, r0
 8001e04:	b306      	cbz	r6, 8001e48 <LTC6811_Init+0x4c>
 8001e06:	4917      	ldr	r1, [pc, #92]	@ (8001e64 <LTC6811_Init+0x68>)
 8001e08:	4b17      	ldr	r3, [pc, #92]	@ (8001e68 <LTC6811_Init+0x6c>)
 8001e0a:	600b      	str	r3, [r1, #0]
 8001e0c:	2200      	movs	r2, #0
 8001e0e:	4b17      	ldr	r3, [pc, #92]	@ (8001e6c <LTC6811_Init+0x70>)
 8001e10:	604b      	str	r3, [r1, #4]
 8001e12:	4610      	mov	r0, r2
 8001e14:	f001 fbe0 	bl	80035d8 <BSP_SPI_Init>
 8001e18:	4621      	mov	r1, r4
 8001e1a:	2003      	movs	r0, #3
 8001e1c:	f000 ff6e 	bl	8002cfc <LTC681x_init_cfg>
 8001e20:	4621      	mov	r1, r4
 8001e22:	2003      	movs	r0, #3
 8001e24:	f000 feea 	bl	8002bfc <LTC681x_reset_crc_count>
 8001e28:	4a11      	ldr	r2, [pc, #68]	@ (8001e70 <LTC6811_Init+0x74>)
 8001e2a:	f8c4 20d6 	str.w	r2, [r4, #214]	@ 0xd6
 8001e2e:	f240 3302 	movw	r3, #770	@ 0x302
 8001e32:	f8a4 30da 	strh.w	r3, [r4, #218]	@ 0xda
 8001e36:	f8c4 21b6 	str.w	r2, [r4, #438]	@ 0x1b6
 8001e3a:	f8a4 31ba 	strh.w	r3, [r4, #442]	@ 0x1ba
 8001e3e:	f8c4 2296 	str.w	r2, [r4, #662]	@ 0x296
 8001e42:	f8a4 329a 	strh.w	r3, [r4, #666]	@ 0x29a
 8001e46:	bd70      	pop	{r4, r5, r6, pc}
 8001e48:	490a      	ldr	r1, [pc, #40]	@ (8001e74 <LTC6811_Init+0x78>)
 8001e4a:	480b      	ldr	r0, [pc, #44]	@ (8001e78 <LTC6811_Init+0x7c>)
 8001e4c:	f7ff f968 	bl	8001120 <RTOS_BPS_MutexCreate>
 8001e50:	490a      	ldr	r1, [pc, #40]	@ (8001e7c <LTC6811_Init+0x80>)
 8001e52:	480b      	ldr	r0, [pc, #44]	@ (8001e80 <LTC6811_Init+0x84>)
 8001e54:	4632      	mov	r2, r6
 8001e56:	f7ff f92b 	bl	80010b0 <RTOS_BPS_SemCreate>
 8001e5a:	2301      	movs	r3, #1
 8001e5c:	702b      	strb	r3, [r5, #0]
 8001e5e:	e7d2      	b.n	8001e06 <LTC6811_Init+0xa>
 8001e60:	20003abc 			@ <UNDEFINED> instruction: 0x20003abc
 8001e64:	20003ac0 	andcs	r3, r0, r0, asr #21
 8001e68:	08001de5 	stmdaeq	r0, {r0, r2, r5, r6, r7, r8, sl, fp, ip}
 8001e6c:	08001df1 	stmdaeq	r0, {r0, r4, r5, r6, r7, r8, sl, fp, ip}
 8001e70:	0406040c 	streq	r0, [r6], #-1036	@ 0xfffffbf4
 8001e74:	080093d8 	stmdaeq	r0, {r3, r4, r6, r7, r8, r9, ip, pc}
 8001e78:	20002710 	andcs	r2, r0, r0, lsl r7
 8001e7c:	080093ec 	stmdaeq	r0, {r2, r3, r5, r6, r7, r8, r9, ip, pc}
 8001e80:	20003a94 	mulcs	r0, r4, sl

08001e84 <LTC6811_rdcv_safe>:
 8001e84:	f000 bbf0 	b.w	8002668 <LTC681x_rdcv>

08001e88 <LTC6811_rdcfg_safe>:
 8001e88:	b5f8      	push	{r3, r4, r5, r6, r7, lr}
 8001e8a:	4f0b      	ldr	r7, [pc, #44]	@ (8001eb8 <LTC6811_rdcfg_safe+0x30>)
 8001e8c:	4606      	mov	r6, r0
 8001e8e:	460d      	mov	r5, r1
 8001e90:	2400      	movs	r4, #0
 8001e92:	e000      	b.n	8001e96 <LTC6811_rdcfg_safe+0xe>
 8001e94:	3401      	adds	r4, #1
 8001e96:	4629      	mov	r1, r5
 8001e98:	4630      	mov	r0, r6
 8001e9a:	f000 fe17 	bl	8002acc <LTC681x_rdcfg>
 8001e9e:	3001      	adds	r0, #1
 8001ea0:	b2e3      	uxtb	r3, r4
 8001ea2:	d108      	bne.n	8001eb6 <LTC6811_rdcfg_safe+0x2e>
 8001ea4:	2b05      	cmp	r3, #5
 8001ea6:	d1f5      	bne.n	8001e94 <LTC6811_rdcfg_safe+0xc>
 8001ea8:	883b      	ldrh	r3, [r7, #0]
 8001eaa:	f443 7380 	orr.w	r3, r3, #256	@ 0x100
 8001eae:	803b      	strh	r3, [r7, #0]
 8001eb0:	f005 ffde 	bl	8007e70 <EnterFaultState>
 8001eb4:	e7ee      	b.n	8001e94 <LTC6811_rdcfg_safe+0xc>
 8001eb6:	bdf8      	pop	{r3, r4, r5, r6, r7, pc}
 8001eb8:	2000162c 	andcs	r1, r0, ip, lsr #12

08001ebc <LTC6811_adcv>:
 8001ebc:	f000 ba42 	b.w	8002344 <LTC681x_adcv>

08001ec0 <LTC6811_pollAdc>:
 8001ec0:	f000 ba54 	b.w	800236c <LTC681x_pollAdc>

08001ec4 <LTC6811_adax>:
 8001ec4:	f000 ba92 	b.w	80023ec <LTC681x_adax>

08001ec8 <LTC6811_rdaux>:
 8001ec8:	f000 bcb6 	b.w	8002838 <LTC681x_rdaux>

08001ecc <LTC6811_wrcfg>:
 8001ecc:	f000 bd8a 	b.w	80029e4 <LTC681x_wrcfg>

08001ed0 <LTC6811_wrcomm>:
 8001ed0:	f000 bf3e 	b.w	8002d50 <LTC681x_wrcomm>

08001ed4 <LTC6811_stcomm>:
 8001ed4:	f000 bfb2 	b.w	8002e3c <LTC681x_stcomm>

08001ed8 <parse_cells.constprop.0>:
 8001ed8:	e92d 41f0 	stmdb	sp!, {r4, r5, r6, r7, r8, lr}
 8001edc:	ea4f 0cc0 	mov.w	ip, r0, lsl #3
 8001ee0:	4c40      	ldr	r4, [pc, #256]	@ (8001fe4 <parse_cells.constprop.0+0x10c>)
 8001ee2:	fa5f fc8c 	uxtb.w	ip, ip
 8001ee6:	eb04 060c 	add.w	r6, r4, ip
 8001eea:	1e4d      	subs	r5, r1, #1
 8001eec:	7877      	ldrb	r7, [r6, #1]
 8001eee:	f814 600c 	ldrb.w	r6, [r4, ip]
 8001ef2:	eb05 0545 	add.w	r5, r5, r5, lsl #1
 8001ef6:	eb06 2607 	add.w	r6, r6, r7, lsl #8
 8001efa:	f822 6015 	strh.w	r6, [r2, r5, lsl #1]
 8001efe:	f10c 0602 	add.w	r6, ip, #2
 8001f02:	b2f6      	uxtb	r6, r6
 8001f04:	19a7      	adds	r7, r4, r6
 8001f06:	5da6      	ldrb	r6, [r4, r6]
 8001f08:	787f      	ldrb	r7, [r7, #1]
 8001f0a:	eb06 2607 	add.w	r6, r6, r7, lsl #8
 8001f0e:	1c6f      	adds	r7, r5, #1
 8001f10:	3502      	adds	r5, #2
 8001f12:	f822 6017 	strh.w	r6, [r2, r7, lsl #1]
 8001f16:	f10c 0604 	add.w	r6, ip, #4
 8001f1a:	b2f6      	uxtb	r6, r6
 8001f1c:	19a7      	adds	r7, r4, r6
 8001f1e:	5da6      	ldrb	r6, [r4, r6]
 8001f20:	787f      	ldrb	r7, [r7, #1]
 8001f22:	eb06 2607 	add.w	r6, r6, r7, lsl #8
 8001f26:	f822 6015 	strh.w	r6, [r2, r5, lsl #1]
 8001f2a:	4a2f      	ldr	r2, [pc, #188]	@ (8001fe8 <parse_cells.constprop.0+0x110>)
 8001f2c:	f814 5030 	ldrb.w	r5, [r4, r0, lsl #3]
 8001f30:	f832 5015 	ldrh.w	r5, [r2, r5, lsl #1]
 8001f34:	2708      	movs	r7, #8
 8001f36:	f04f 0e01 	mov.w	lr, #1
 8001f3a:	f485 5880 	eor.w	r8, r5, #4096	@ 0x1000
 8001f3e:	fb17 e500 	smlabb	r5, r7, r0, lr
 8001f42:	f10c 0c06 	add.w	ip, ip, #6
 8001f46:	5d66      	ldrb	r6, [r4, r5]
 8001f48:	ea86 16d8 	eor.w	r6, r6, r8, lsr #7
 8001f4c:	b2f6      	uxtb	r6, r6
 8001f4e:	fa5f fc8c 	uxtb.w	ip, ip
 8001f52:	f832 5016 	ldrh.w	r5, [r2, r6, lsl #1]
 8001f56:	fb07 4600 	mla	r6, r7, r0, r4
 8001f5a:	ea85 2508 	eor.w	r5, r5, r8, lsl #8
 8001f5e:	78b6      	ldrb	r6, [r6, #2]
 8001f60:	f3c5 18c7 	ubfx	r8, r5, #7, #8
 8001f64:	ea88 0806 	eor.w	r8, r8, r6
 8001f68:	b2ae      	uxth	r6, r5
 8001f6a:	f832 5018 	ldrh.w	r5, [r2, r8, lsl #1]
 8001f6e:	ea85 2506 	eor.w	r5, r5, r6, lsl #8
 8001f72:	fb07 4600 	mla	r6, r7, r0, r4
 8001f76:	440b      	add	r3, r1
 8001f78:	f896 8003 	ldrb.w	r8, [r6, #3]
 8001f7c:	f3c5 16c7 	ubfx	r6, r5, #7, #8
 8001f80:	ea86 0608 	eor.w	r6, r6, r8
 8001f84:	b2ad      	uxth	r5, r5
 8001f86:	f832 6016 	ldrh.w	r6, [r2, r6, lsl #1]
 8001f8a:	ea86 2505 	eor.w	r5, r6, r5, lsl #8
 8001f8e:	fb07 4600 	mla	r6, r7, r0, r4
 8001f92:	f896 8004 	ldrb.w	r8, [r6, #4]
 8001f96:	7977      	ldrb	r7, [r6, #5]
 8001f98:	f3c5 16c7 	ubfx	r6, r5, #7, #8
 8001f9c:	ea86 0608 	eor.w	r6, r6, r8
 8001fa0:	b2ad      	uxth	r5, r5
 8001fa2:	f832 0016 	ldrh.w	r0, [r2, r6, lsl #1]
 8001fa6:	ea80 2005 	eor.w	r0, r0, r5, lsl #8
 8001faa:	f3c0 15c7 	ubfx	r5, r0, #7, #8
 8001fae:	407d      	eors	r5, r7
 8001fb0:	b280      	uxth	r0, r0
 8001fb2:	f832 2015 	ldrh.w	r2, [r2, r5, lsl #1]
 8001fb6:	ea82 2200 	eor.w	r2, r2, r0, lsl #8
 8001fba:	eb04 000c 	add.w	r0, r4, ip
 8001fbe:	b212      	sxth	r2, r2
 8001fc0:	f814 400c 	ldrb.w	r4, [r4, ip]
 8001fc4:	7840      	ldrb	r0, [r0, #1]
 8001fc6:	fa02 f20e 	lsl.w	r2, r2, lr
 8001fca:	ea40 2004 	orr.w	r0, r0, r4, lsl #8
 8001fce:	b292      	uxth	r2, r2
 8001fd0:	4290      	cmp	r0, r2
 8001fd2:	bf0b      	itete	eq
 8001fd4:	2000      	moveq	r0, #0
 8001fd6:	f803 ec01 	strbne.w	lr, [r3, #-1]
 8001fda:	f803 0c01 	strbeq.w	r0, [r3, #-1]
 8001fde:	4670      	movne	r0, lr
 8001fe0:	e8bd 81f0 	ldmia.w	sp!, {r4, r5, r6, r7, r8, pc}
 8001fe4:	20003ac8 	andcs	r3, r0, r8, asr #21
 8001fe8:	080093fc 	stmdaeq	r0, {r2, r3, r4, r5, r6, r7, r8, r9, ip, pc}

08001fec <wakeup_sleep>:
 8001fec:	b1a0      	cbz	r0, 8002018 <wakeup_sleep+0x2c>
 8001fee:	b538      	push	{r3, r4, r5, lr}
 8001ff0:	4605      	mov	r5, r0
 8001ff2:	2400      	movs	r4, #0
 8001ff4:	2100      	movs	r1, #0
 8001ff6:	4608      	mov	r0, r1
 8001ff8:	f001 fd96 	bl	8003b28 <BSP_SPI_SetStateCS>
 8001ffc:	20c8      	movs	r0, #200	@ 0xc8
 8001ffe:	f7ff f8e5 	bl	80011cc <RTOS_BPS_DelayUs>
 8002002:	2101      	movs	r1, #1
 8002004:	2000      	movs	r0, #0
 8002006:	f001 fd8f 	bl	8003b28 <BSP_SPI_SetStateCS>
 800200a:	3401      	adds	r4, #1
 800200c:	20c8      	movs	r0, #200	@ 0xc8
 800200e:	f7ff f8dd 	bl	80011cc <RTOS_BPS_DelayUs>
 8002012:	42ac      	cmp	r4, r5
 8002014:	d1ee      	bne.n	8001ff4 <wakeup_sleep+0x8>
 8002016:	bd38      	pop	{r3, r4, r5, pc}
 8002018:	4770      	bx	lr
 800201a:	bf00      	nop

0800201c <cmd_68>:
 800201c:	b500      	push	{lr}
 800201e:	491a      	ldr	r1, [pc, #104]	@ (8002088 <cmd_68+0x6c>)
 8002020:	7802      	ldrb	r2, [r0, #0]
 8002022:	7840      	ldrb	r0, [r0, #1]
 8002024:	f831 3012 	ldrh.w	r3, [r1, r2, lsl #1]
 8002028:	b083      	sub	sp, #12
 800202a:	f88d 2004 	strb.w	r2, [sp, #4]
 800202e:	f483 5280 	eor.w	r2, r3, #4096	@ 0x1000
 8002032:	ea80 13d2 	eor.w	r3, r0, r2, lsr #7
 8002036:	b2db      	uxtb	r3, r3
 8002038:	f88d 0005 	strb.w	r0, [sp, #5]
 800203c:	f831 3013 	ldrh.w	r3, [r1, r3, lsl #1]
 8002040:	ea83 2302 	eor.w	r3, r3, r2, lsl #8
 8002044:	2100      	movs	r1, #0
 8002046:	b21b      	sxth	r3, r3
 8002048:	005a      	lsls	r2, r3, #1
 800204a:	4608      	mov	r0, r1
 800204c:	f3c3 13c7 	ubfx	r3, r3, #7, #8
 8002050:	f88d 2007 	strb.w	r2, [sp, #7]
 8002054:	f88d 3006 	strb.w	r3, [sp, #6]
 8002058:	f001 fd66 	bl	8003b28 <BSP_SPI_SetStateCS>
 800205c:	2204      	movs	r2, #4
 800205e:	eb0d 0102 	add.w	r1, sp, r2
 8002062:	2000      	movs	r0, #0
 8002064:	f001 fbca 	bl	80037fc <BSP_SPI_Write>
 8002068:	b130      	cbz	r0, 8002078 <cmd_68+0x5c>
 800206a:	2101      	movs	r1, #1
 800206c:	2000      	movs	r0, #0
 800206e:	f001 fd5b 	bl	8003b28 <BSP_SPI_SetStateCS>
 8002072:	b003      	add	sp, #12
 8002074:	f85d fb04 	ldr.w	pc, [sp], #4
 8002078:	4a04      	ldr	r2, [pc, #16]	@ (800208c <cmd_68+0x70>)
 800207a:	8813      	ldrh	r3, [r2, #0]
 800207c:	f443 7380 	orr.w	r3, r3, #256	@ 0x100
 8002080:	8013      	strh	r3, [r2, #0]
 8002082:	f005 fef5 	bl	8007e70 <EnterFaultState>
 8002086:	e7f0      	b.n	800206a <cmd_68+0x4e>
 8002088:	080093fc 	stmdaeq	r0, {r2, r3, r4, r5, r6, r7, r8, r9, ip, pc}
 800208c:	2000162c 	andcs	r1, r0, ip, lsr #12

08002090 <write_68>:
 8002090:	e92d 4ff0 	stmdb	sp!, {r4, r5, r6, r7, r8, r9, sl, fp, lr}
 8002094:	b083      	sub	sp, #12
 8002096:	780d      	ldrb	r5, [r1, #0]
 8002098:	4c56      	ldr	r4, [pc, #344]	@ (80021f4 <write_68+0x164>)
 800209a:	784e      	ldrb	r6, [r1, #1]
 800209c:	f834 3015 	ldrh.w	r3, [r4, r5, lsl #1]
 80020a0:	f483 5180 	eor.w	r1, r3, #4096	@ 0x1000
 80020a4:	00c3      	lsls	r3, r0, #3
 80020a6:	3304      	adds	r3, #4
 80020a8:	fa5f fc83 	uxtb.w	ip, r3
 80020ac:	ea86 13d1 	eor.w	r3, r6, r1, lsr #7
 80020b0:	b2db      	uxtb	r3, r3
 80020b2:	af00      	add	r7, sp, #0
 80020b4:	f834 3013 	ldrh.w	r3, [r4, r3, lsl #1]
 80020b8:	f8c7 c004 	str.w	ip, [r7, #4]
 80020bc:	ea83 2301 	eor.w	r3, r3, r1, lsl #8
 80020c0:	4661      	mov	r1, ip
 80020c2:	3107      	adds	r1, #7
 80020c4:	f401 71fc 	and.w	r1, r1, #504	@ 0x1f8
 80020c8:	ebad 0d01 	sub.w	sp, sp, r1
 80020cc:	b21b      	sxth	r3, r3
 80020ce:	0059      	lsls	r1, r3, #1
 80020d0:	f3c3 13c7 	ubfx	r3, r3, #7, #8
 80020d4:	f88d 5000 	strb.w	r5, [sp]
 80020d8:	f88d 6001 	strb.w	r6, [sp, #1]
 80020dc:	f88d 1003 	strb.w	r1, [sp, #3]
 80020e0:	f88d 3002 	strb.w	r3, [sp, #2]
 80020e4:	466d      	mov	r5, sp
 80020e6:	2800      	cmp	r0, #0
 80020e8:	d06a      	beq.n	80021c0 <write_68+0x130>
 80020ea:	eb00 0140 	add.w	r1, r0, r0, lsl #1
 80020ee:	f100 3bff 	add.w	fp, r0, #4294967295	@ 0xffffffff
 80020f2:	eb02 0141 	add.w	r1, r2, r1, lsl #1
 80020f6:	fa5f fb8b 	uxtb.w	fp, fp
 80020fa:	3a06      	subs	r2, #6
 80020fc:	2306      	movs	r3, #6
 80020fe:	fb13 2200 	smlabb	r2, r3, r0, r2
 8002102:	eb0b 0b4b 	add.w	fp, fp, fp, lsl #1
 8002106:	eba2 0b4b 	sub.w	fp, r2, fp, lsl #1
 800210a:	2204      	movs	r2, #4
 800210c:	f811 3c06 	ldrb.w	r3, [r1, #-6]
 8002110:	f811 0c05 	ldrb.w	r0, [r1, #-5]
 8002114:	f834 3013 	ldrh.w	r3, [r4, r3, lsl #1]
 8002118:	f811 cc04 	ldrb.w	ip, [r1, #-4]
 800211c:	f811 8c02 	ldrb.w	r8, [r1, #-2]
 8002120:	f811 6c01 	ldrb.w	r6, [r1, #-1]
 8002124:	f483 5e80 	eor.w	lr, r3, #4096	@ 0x1000
 8002128:	ea80 10de 	eor.w	r0, r0, lr, lsr #7
 800212c:	b2c0      	uxtb	r0, r0
 800212e:	f834 3010 	ldrh.w	r3, [r4, r0, lsl #1]
 8002132:	ea83 230e 	eor.w	r3, r3, lr, lsl #8
 8002136:	f3c3 10c7 	ubfx	r0, r3, #7, #8
 800213a:	ea80 0c0c 	eor.w	ip, r0, ip
 800213e:	b298      	uxth	r0, r3
 8002140:	f834 301c 	ldrh.w	r3, [r4, ip, lsl #1]
 8002144:	f811 ec03 	ldrb.w	lr, [r1, #-3]
 8002148:	f851 ad06 	ldr.w	sl, [r1, #-6]!
 800214c:	f845 a002 	str.w	sl, [r5, r2]
 8002150:	ea83 2300 	eor.w	r3, r3, r0, lsl #8
 8002154:	f3c3 1cc7 	ubfx	ip, r3, #7, #8
 8002158:	ea8c 0c0e 	eor.w	ip, ip, lr
 800215c:	b298      	uxth	r0, r3
 800215e:	f834 301c 	ldrh.w	r3, [r4, ip, lsl #1]
 8002162:	ea83 2300 	eor.w	r3, r3, r0, lsl #8
 8002166:	f3c3 10c7 	ubfx	r0, r3, #7, #8
 800216a:	ea80 0008 	eor.w	r0, r0, r8
 800216e:	b29b      	uxth	r3, r3
 8002170:	f834 0010 	ldrh.w	r0, [r4, r0, lsl #1]
 8002174:	ea80 2303 	eor.w	r3, r0, r3, lsl #8
 8002178:	f3c3 1cc7 	ubfx	ip, r3, #7, #8
 800217c:	ea8c 0c06 	eor.w	ip, ip, r6
 8002180:	f102 0e04 	add.w	lr, r2, #4
 8002184:	f834 901c 	ldrh.w	r9, [r4, ip, lsl #1]
 8002188:	f102 0c05 	add.w	ip, r2, #5
 800218c:	1d90      	adds	r0, r2, #6
 800218e:	b29b      	uxth	r3, r3
 8002190:	fa5f fe8e 	uxtb.w	lr, lr
 8002194:	fa5f fc8c 	uxtb.w	ip, ip
 8002198:	b2c0      	uxtb	r0, r0
 800219a:	ea89 2303 	eor.w	r3, r9, r3, lsl #8
 800219e:	f805 800e 	strb.w	r8, [r5, lr]
 80021a2:	b21b      	sxth	r3, r3
 80021a4:	f805 600c 	strb.w	r6, [r5, ip]
 80021a8:	182e      	adds	r6, r5, r0
 80021aa:	ea4f 0943 	mov.w	r9, r3, lsl #1
 80021ae:	3208      	adds	r2, #8
 80021b0:	f3c3 13c7 	ubfx	r3, r3, #7, #8
 80021b4:	458b      	cmp	fp, r1
 80021b6:	542b      	strb	r3, [r5, r0]
 80021b8:	b2d2      	uxtb	r2, r2
 80021ba:	f886 9001 	strb.w	r9, [r6, #1]
 80021be:	d1a5      	bne.n	800210c <write_68+0x7c>
 80021c0:	2100      	movs	r1, #0
 80021c2:	4608      	mov	r0, r1
 80021c4:	f001 fcb0 	bl	8003b28 <BSP_SPI_SetStateCS>
 80021c8:	687a      	ldr	r2, [r7, #4]
 80021ca:	4629      	mov	r1, r5
 80021cc:	2000      	movs	r0, #0
 80021ce:	f001 fb15 	bl	80037fc <BSP_SPI_Write>
 80021d2:	b138      	cbz	r0, 80021e4 <write_68+0x154>
 80021d4:	2101      	movs	r1, #1
 80021d6:	2000      	movs	r0, #0
 80021d8:	f001 fca6 	bl	8003b28 <BSP_SPI_SetStateCS>
 80021dc:	370c      	adds	r7, #12
 80021de:	46bd      	mov	sp, r7
 80021e0:	e8bd 8ff0 	ldmia.w	sp!, {r4, r5, r6, r7, r8, r9, sl, fp, pc}
 80021e4:	4a04      	ldr	r2, [pc, #16]	@ (80021f8 <write_68+0x168>)
 80021e6:	8813      	ldrh	r3, [r2, #0]
 80021e8:	f443 7380 	orr.w	r3, r3, #256	@ 0x100
 80021ec:	8013      	strh	r3, [r2, #0]
 80021ee:	f005 fe3f 	bl	8007e70 <EnterFaultState>
 80021f2:	e7ef      	b.n	80021d4 <write_68+0x144>
 80021f4:	080093fc 	stmdaeq	r0, {r2, r3, r4, r5, r6, r7, r8, r9, ip, pc}
 80021f8:	2000162c 	andcs	r1, r0, ip, lsr #12

080021fc <read_68>:
 80021fc:	b5f0      	push	{r4, r5, r6, r7, lr}
 80021fe:	4c4f      	ldr	r4, [pc, #316]	@ (800233c <read_68+0x140>)
 8002200:	780f      	ldrb	r7, [r1, #0]
 8002202:	784b      	ldrb	r3, [r1, #1]
 8002204:	4616      	mov	r6, r2
 8002206:	f834 2017 	ldrh.w	r2, [r4, r7, lsl #1]
 800220a:	b0c3      	sub	sp, #268	@ 0x10c
 800220c:	f482 5280 	eor.w	r2, r2, #4096	@ 0x1000
 8002210:	f88d 3005 	strb.w	r3, [sp, #5]
 8002214:	ea83 13d2 	eor.w	r3, r3, r2, lsr #7
 8002218:	b2db      	uxtb	r3, r3
 800221a:	2100      	movs	r1, #0
 800221c:	f834 3013 	ldrh.w	r3, [r4, r3, lsl #1]
 8002220:	f88d 7004 	strb.w	r7, [sp, #4]
 8002224:	ea83 2302 	eor.w	r3, r3, r2, lsl #8
 8002228:	b21b      	sxth	r3, r3
 800222a:	005a      	lsls	r2, r3, #1
 800222c:	4605      	mov	r5, r0
 800222e:	f3c3 13c7 	ubfx	r3, r3, #7, #8
 8002232:	4608      	mov	r0, r1
 8002234:	f88d 2007 	strb.w	r2, [sp, #7]
 8002238:	f88d 3006 	strb.w	r3, [sp, #6]
 800223c:	f001 fc74 	bl	8003b28 <BSP_SPI_SetStateCS>
 8002240:	2204      	movs	r2, #4
 8002242:	eb0d 0102 	add.w	r1, sp, r2
 8002246:	2000      	movs	r0, #0
 8002248:	f001 fad8 	bl	80037fc <BSP_SPI_Write>
 800224c:	2800      	cmp	r0, #0
 800224e:	d065      	beq.n	800231c <read_68+0x120>
 8002250:	00ea      	lsls	r2, r5, #3
 8002252:	a902      	add	r1, sp, #8
 8002254:	2000      	movs	r0, #0
 8002256:	f001 fb5d 	bl	8003914 <BSP_SPI_Read>
 800225a:	2800      	cmp	r0, #0
 800225c:	d05e      	beq.n	800231c <read_68+0x120>
 800225e:	2101      	movs	r1, #1
 8002260:	2000      	movs	r0, #0
 8002262:	f001 fc61 	bl	8003b28 <BSP_SPI_SetStateCS>
 8002266:	2d00      	cmp	r5, #0
 8002268:	d065      	beq.n	8002336 <read_68+0x13a>
 800226a:	1e6b      	subs	r3, r5, #1
 800226c:	b2db      	uxtb	r3, r3
 800226e:	f106 0e08 	add.w	lr, r6, #8
 8002272:	4632      	mov	r2, r6
 8002274:	f10d 0c08 	add.w	ip, sp, #8
 8002278:	eb0e 0ec3 	add.w	lr, lr, r3, lsl #3
 800227c:	2000      	movs	r0, #0
 800227e:	f8dc 3000 	ldr.w	r3, [ip]
 8002282:	6013      	str	r3, [r2, #0]
 8002284:	7813      	ldrb	r3, [r2, #0]
 8002286:	7851      	ldrb	r1, [r2, #1]
 8002288:	f834 3013 	ldrh.w	r3, [r4, r3, lsl #1]
 800228c:	7897      	ldrb	r7, [r2, #2]
 800228e:	78d6      	ldrb	r6, [r2, #3]
 8002290:	f483 5580 	eor.w	r5, r3, #4096	@ 0x1000
 8002294:	ea81 11d5 	eor.w	r1, r1, r5, lsr #7
 8002298:	b2c9      	uxtb	r1, r1
 800229a:	3208      	adds	r2, #8
 800229c:	f834 3011 	ldrh.w	r3, [r4, r1, lsl #1]
 80022a0:	f8dc 1004 	ldr.w	r1, [ip, #4]
 80022a4:	f842 1c04 	str.w	r1, [r2, #-4]
 80022a8:	ea83 2305 	eor.w	r3, r3, r5, lsl #8
 80022ac:	f3c3 15c7 	ubfx	r5, r3, #7, #8
 80022b0:	406f      	eors	r7, r5
 80022b2:	b29d      	uxth	r5, r3
 80022b4:	f834 3017 	ldrh.w	r3, [r4, r7, lsl #1]
 80022b8:	ea83 2305 	eor.w	r3, r3, r5, lsl #8
 80022bc:	f3c3 11c7 	ubfx	r1, r3, #7, #8
 80022c0:	404e      	eors	r6, r1
 80022c2:	b299      	uxth	r1, r3
 80022c4:	f834 3016 	ldrh.w	r3, [r4, r6, lsl #1]
 80022c8:	f812 6c04 	ldrb.w	r6, [r2, #-4]
 80022cc:	ea83 2301 	eor.w	r3, r3, r1, lsl #8
 80022d0:	f3c3 15c7 	ubfx	r5, r3, #7, #8
 80022d4:	4075      	eors	r5, r6
 80022d6:	b299      	uxth	r1, r3
 80022d8:	f834 3015 	ldrh.w	r3, [r4, r5, lsl #1]
 80022dc:	f812 6c03 	ldrb.w	r6, [r2, #-3]
 80022e0:	ea83 2301 	eor.w	r3, r3, r1, lsl #8
 80022e4:	f3c3 15c7 	ubfx	r5, r3, #7, #8
 80022e8:	4075      	eors	r5, r6
 80022ea:	b299      	uxth	r1, r3
 80022ec:	f834 3015 	ldrh.w	r3, [r4, r5, lsl #1]
 80022f0:	f812 6c02 	ldrb.w	r6, [r2, #-2]
 80022f4:	f812 5c01 	ldrb.w	r5, [r2, #-1]
 80022f8:	ea83 2301 	eor.w	r3, r3, r1, lsl #8
 80022fc:	b21b      	sxth	r3, r3
 80022fe:	eb05 2106 	add.w	r1, r5, r6, lsl #8
 8002302:	005b      	lsls	r3, r3, #1
 8002304:	b289      	uxth	r1, r1
 8002306:	b29b      	uxth	r3, r3
 8002308:	4299      	cmp	r1, r3
 800230a:	bf18      	it	ne
 800230c:	f04f 30ff 	movne.w	r0, #4294967295	@ 0xffffffff
 8002310:	4572      	cmp	r2, lr
 8002312:	f10c 0c08 	add.w	ip, ip, #8
 8002316:	d1b2      	bne.n	800227e <read_68+0x82>
 8002318:	b043      	add	sp, #268	@ 0x10c
 800231a:	bdf0      	pop	{r4, r5, r6, r7, pc}
 800231c:	4a08      	ldr	r2, [pc, #32]	@ (8002340 <read_68+0x144>)
 800231e:	8813      	ldrh	r3, [r2, #0]
 8002320:	f443 7380 	orr.w	r3, r3, #256	@ 0x100
 8002324:	8013      	strh	r3, [r2, #0]
 8002326:	f005 fda3 	bl	8007e70 <EnterFaultState>
 800232a:	2101      	movs	r1, #1
 800232c:	2000      	movs	r0, #0
 800232e:	f001 fbfb 	bl	8003b28 <BSP_SPI_SetStateCS>
 8002332:	2d00      	cmp	r5, #0
 8002334:	d199      	bne.n	800226a <read_68+0x6e>
 8002336:	4628      	mov	r0, r5
 8002338:	b043      	add	sp, #268	@ 0x10c
 800233a:	bdf0      	pop	{r4, r5, r6, r7, pc}
 800233c:	080093fc 	stmdaeq	r0, {r2, r3, r4, r5, r6, r7, r8, r9, ip, pc}
 8002340:	2000162c 	andcs	r1, r0, ip, lsr #12

08002344 <LTC681x_adcv>:
 8002344:	b500      	push	{lr}
 8002346:	3260      	adds	r2, #96	@ 0x60
 8002348:	b083      	sub	sp, #12
 800234a:	eb02 1201 	add.w	r2, r2, r1, lsl #4
 800234e:	f3c0 0340 	ubfx	r3, r0, #1, #1
 8002352:	eb02 12c0 	add.w	r2, r2, r0, lsl #7
 8002356:	3302      	adds	r3, #2
 8002358:	a801      	add	r0, sp, #4
 800235a:	f88d 3004 	strb.w	r3, [sp, #4]
 800235e:	f88d 2005 	strb.w	r2, [sp, #5]
 8002362:	f7ff fe5b 	bl	800201c <cmd_68>
 8002366:	b003      	add	sp, #12
 8002368:	f85d fb04 	ldr.w	pc, [sp], #4

0800236c <LTC681x_pollAdc>:
 800236c:	b5f0      	push	{r4, r5, r6, r7, lr}
 800236e:	2100      	movs	r1, #0
 8002370:	b083      	sub	sp, #12
 8002372:	4608      	mov	r0, r1
 8002374:	4b1a      	ldr	r3, [pc, #104]	@ (80023e0 <LTC681x_pollAdc+0x74>)
 8002376:	9301      	str	r3, [sp, #4]
 8002378:	f001 fbd6 	bl	8003b28 <BSP_SPI_SetStateCS>
 800237c:	2204      	movs	r2, #4
 800237e:	eb0d 0102 	add.w	r1, sp, r2
 8002382:	2000      	movs	r0, #0
 8002384:	f001 fa3a 	bl	80037fc <BSP_SPI_Write>
 8002388:	b308      	cbz	r0, 80023ce <LTC681x_pollAdc+0x62>
 800238a:	2400      	movs	r4, #0
 800238c:	4e15      	ldr	r6, [pc, #84]	@ (80023e4 <LTC681x_pollAdc+0x78>)
 800238e:	4f16      	ldr	r7, [pc, #88]	@ (80023e8 <LTC681x_pollAdc+0x7c>)
 8002390:	4625      	mov	r5, r4
 8002392:	2201      	movs	r2, #1
 8002394:	f10d 0103 	add.w	r1, sp, #3
 8002398:	2000      	movs	r0, #0
 800239a:	f88d 5003 	strb.w	r5, [sp, #3]
 800239e:	f001 fab9 	bl	8003914 <BSP_SPI_Read>
 80023a2:	b168      	cbz	r0, 80023c0 <LTC681x_pollAdc+0x54>
 80023a4:	f89d 3003 	ldrb.w	r3, [sp, #3]
 80023a8:	b133      	cbz	r3, 80023b8 <LTC681x_pollAdc+0x4c>
 80023aa:	2101      	movs	r1, #1
 80023ac:	2000      	movs	r0, #0
 80023ae:	f001 fbbb 	bl	8003b28 <BSP_SPI_SetStateCS>
 80023b2:	4620      	mov	r0, r4
 80023b4:	b003      	add	sp, #12
 80023b6:	bdf0      	pop	{r4, r5, r6, r7, pc}
 80023b8:	340a      	adds	r4, #10
 80023ba:	42bc      	cmp	r4, r7
 80023bc:	d1e9      	bne.n	8002392 <LTC681x_pollAdc+0x26>
 80023be:	e7f4      	b.n	80023aa <LTC681x_pollAdc+0x3e>
 80023c0:	8833      	ldrh	r3, [r6, #0]
 80023c2:	f443 7380 	orr.w	r3, r3, #256	@ 0x100
 80023c6:	8033      	strh	r3, [r6, #0]
 80023c8:	f005 fd52 	bl	8007e70 <EnterFaultState>
 80023cc:	e7ea      	b.n	80023a4 <LTC681x_pollAdc+0x38>
 80023ce:	4a05      	ldr	r2, [pc, #20]	@ (80023e4 <LTC681x_pollAdc+0x78>)
 80023d0:	8813      	ldrh	r3, [r2, #0]
 80023d2:	f443 7380 	orr.w	r3, r3, #256	@ 0x100
 80023d6:	8013      	strh	r3, [r2, #0]
 80023d8:	f005 fd4a 	bl	8007e70 <EnterFaultState>
 80023dc:	e7d5      	b.n	800238a <LTC681x_pollAdc+0x1e>
 80023de:	bf00      	nop
 80023e0:	6cf31407 	ldclvs	4, cr1, [r3], #28
 80023e4:	2000162c 	andcs	r1, r0, ip, lsr #12
 80023e8:	00030d40 	andeq	r0, r3, r0, asr #26

080023ec <LTC681x_adax>:
 80023ec:	b500      	push	{lr}
 80023ee:	f3c0 0340 	ubfx	r3, r0, #1, #1
 80023f2:	b083      	sub	sp, #12
 80023f4:	3160      	adds	r1, #96	@ 0x60
 80023f6:	eb01 11c0 	add.w	r1, r1, r0, lsl #7
 80023fa:	3304      	adds	r3, #4
 80023fc:	a801      	add	r0, sp, #4
 80023fe:	f88d 3004 	strb.w	r3, [sp, #4]
 8002402:	f88d 1005 	strb.w	r1, [sp, #5]
 8002406:	f7ff fe09 	bl	800201c <cmd_68>
 800240a:	b003      	add	sp, #12
 800240c:	f85d fb04 	ldr.w	pc, [sp], #4

08002410 <LTC681x_rdcv_reg>:
 8002410:	b530      	push	{r4, r5, lr}
 8002412:	b083      	sub	sp, #12
 8002414:	2300      	movs	r3, #0
 8002416:	2801      	cmp	r0, #1
 8002418:	9301      	str	r3, [sp, #4]
 800241a:	460d      	mov	r5, r1
 800241c:	4614      	mov	r4, r2
 800241e:	d033      	beq.n	8002488 <LTC681x_rdcv_reg+0x78>
 8002420:	2802      	cmp	r0, #2
 8002422:	d00a      	beq.n	800243a <LTC681x_rdcv_reg+0x2a>
 8002424:	2803      	cmp	r0, #3
 8002426:	d03a      	beq.n	800249e <LTC681x_rdcv_reg+0x8e>
 8002428:	2804      	cmp	r0, #4
 800242a:	d033      	beq.n	8002494 <LTC681x_rdcv_reg+0x84>
 800242c:	2805      	cmp	r0, #5
 800242e:	d03c      	beq.n	80024aa <LTC681x_rdcv_reg+0x9a>
 8002430:	2806      	cmp	r0, #6
 8002432:	d040      	beq.n	80024b6 <LTC681x_rdcv_reg+0xa6>
 8002434:	205c      	movs	r0, #92	@ 0x5c
 8002436:	23b6      	movs	r3, #182	@ 0xb6
 8002438:	e004      	b.n	8002444 <LTC681x_rdcv_reg+0x34>
 800243a:	2306      	movs	r3, #6
 800243c:	f88d 3005 	strb.w	r3, [sp, #5]
 8002440:	2094      	movs	r0, #148	@ 0x94
 8002442:	239a      	movs	r3, #154	@ 0x9a
 8002444:	2100      	movs	r1, #0
 8002446:	f88d 0007 	strb.w	r0, [sp, #7]
 800244a:	4608      	mov	r0, r1
 800244c:	f88d 3006 	strb.w	r3, [sp, #6]
 8002450:	f001 fb6a 	bl	8003b28 <BSP_SPI_SetStateCS>
 8002454:	2204      	movs	r2, #4
 8002456:	eb0d 0102 	add.w	r1, sp, r2
 800245a:	2000      	movs	r0, #0
 800245c:	f001 f9ce 	bl	80037fc <BSP_SPI_Write>
 8002460:	b128      	cbz	r0, 800246e <LTC681x_rdcv_reg+0x5e>
 8002462:	00ea      	lsls	r2, r5, #3
 8002464:	4621      	mov	r1, r4
 8002466:	2000      	movs	r0, #0
 8002468:	f001 fa54 	bl	8003914 <BSP_SPI_Read>
 800246c:	b930      	cbnz	r0, 800247c <LTC681x_rdcv_reg+0x6c>
 800246e:	4a15      	ldr	r2, [pc, #84]	@ (80024c4 <LTC681x_rdcv_reg+0xb4>)
 8002470:	8813      	ldrh	r3, [r2, #0]
 8002472:	f443 7380 	orr.w	r3, r3, #256	@ 0x100
 8002476:	8013      	strh	r3, [r2, #0]
 8002478:	f005 fcfa 	bl	8007e70 <EnterFaultState>
 800247c:	2101      	movs	r1, #1
 800247e:	2000      	movs	r0, #0
 8002480:	f001 fb52 	bl	8003b28 <BSP_SPI_SetStateCS>
 8002484:	b003      	add	sp, #12
 8002486:	bd30      	pop	{r4, r5, pc}
 8002488:	2304      	movs	r3, #4
 800248a:	f88d 3005 	strb.w	r3, [sp, #5]
 800248e:	20c2      	movs	r0, #194	@ 0xc2
 8002490:	2307      	movs	r3, #7
 8002492:	e7d7      	b.n	8002444 <LTC681x_rdcv_reg+0x34>
 8002494:	230a      	movs	r3, #10
 8002496:	f88d 3005 	strb.w	r3, [sp, #5]
 800249a:	23c3      	movs	r3, #195	@ 0xc3
 800249c:	e7d2      	b.n	8002444 <LTC681x_rdcv_reg+0x34>
 800249e:	2308      	movs	r3, #8
 80024a0:	f88d 3005 	strb.w	r3, [sp, #5]
 80024a4:	2052      	movs	r0, #82	@ 0x52
 80024a6:	235e      	movs	r3, #94	@ 0x5e
 80024a8:	e7cc      	b.n	8002444 <LTC681x_rdcv_reg+0x34>
 80024aa:	2309      	movs	r3, #9
 80024ac:	f88d 3005 	strb.w	r3, [sp, #5]
 80024b0:	2060      	movs	r0, #96	@ 0x60
 80024b2:	23d5      	movs	r3, #213	@ 0xd5
 80024b4:	e7c6      	b.n	8002444 <LTC681x_rdcv_reg+0x34>
 80024b6:	230b      	movs	r3, #11
 80024b8:	f88d 3005 	strb.w	r3, [sp, #5]
 80024bc:	2036      	movs	r0, #54	@ 0x36
 80024be:	2348      	movs	r3, #72	@ 0x48
 80024c0:	e7c0      	b.n	8002444 <LTC681x_rdcv_reg+0x34>
 80024c2:	bf00      	nop
 80024c4:	2000162c 	andcs	r1, r0, ip, lsr #12

080024c8 <parse_cells>:
 80024c8:	b5f0      	push	{r4, r5, r6, r7, lr}
 80024ca:	ea4f 0cc0 	mov.w	ip, r0, lsl #3
 80024ce:	fa5f fc8c 	uxtb.w	ip, ip
 80024d2:	eb02 040c 	add.w	r4, r2, ip
 80024d6:	f101 3eff 	add.w	lr, r1, #4294967295	@ 0xffffffff
 80024da:	7865      	ldrb	r5, [r4, #1]
 80024dc:	f812 400c 	ldrb.w	r4, [r2, ip]
 80024e0:	eb0e 0e4e 	add.w	lr, lr, lr, lsl #1
 80024e4:	eb04 2405 	add.w	r4, r4, r5, lsl #8
 80024e8:	f823 401e 	strh.w	r4, [r3, lr, lsl #1]
 80024ec:	f10c 0402 	add.w	r4, ip, #2
 80024f0:	b2e4      	uxtb	r4, r4
 80024f2:	1915      	adds	r5, r2, r4
 80024f4:	5d14      	ldrb	r4, [r2, r4]
 80024f6:	786d      	ldrb	r5, [r5, #1]
 80024f8:	eb04 2405 	add.w	r4, r4, r5, lsl #8
 80024fc:	f10e 0501 	add.w	r5, lr, #1
 8002500:	f10e 0e02 	add.w	lr, lr, #2
 8002504:	f823 4015 	strh.w	r4, [r3, r5, lsl #1]
 8002508:	f10c 0404 	add.w	r4, ip, #4
 800250c:	b2e4      	uxtb	r4, r4
 800250e:	1915      	adds	r5, r2, r4
 8002510:	5d14      	ldrb	r4, [r2, r4]
 8002512:	786d      	ldrb	r5, [r5, #1]
 8002514:	eb04 2405 	add.w	r4, r4, r5, lsl #8
 8002518:	f823 401e 	strh.w	r4, [r3, lr, lsl #1]
 800251c:	4b2b      	ldr	r3, [pc, #172]	@ (80025cc <parse_cells+0x104>)
 800251e:	f812 4030 	ldrb.w	r4, [r2, r0, lsl #3]
 8002522:	f833 4014 	ldrh.w	r4, [r3, r4, lsl #1]
 8002526:	2608      	movs	r6, #8
 8002528:	f04f 0e01 	mov.w	lr, #1
 800252c:	f484 5780 	eor.w	r7, r4, #4096	@ 0x1000
 8002530:	fb16 e400 	smlabb	r4, r6, r0, lr
 8002534:	f10c 0c06 	add.w	ip, ip, #6
 8002538:	5d15      	ldrb	r5, [r2, r4]
 800253a:	ea85 15d7 	eor.w	r5, r5, r7, lsr #7
 800253e:	b2ed      	uxtb	r5, r5
 8002540:	fa5f fc8c 	uxtb.w	ip, ip
 8002544:	f833 4015 	ldrh.w	r4, [r3, r5, lsl #1]
 8002548:	fb06 2500 	mla	r5, r6, r0, r2
 800254c:	ea84 2407 	eor.w	r4, r4, r7, lsl #8
 8002550:	78ad      	ldrb	r5, [r5, #2]
 8002552:	f3c4 17c7 	ubfx	r7, r4, #7, #8
 8002556:	406f      	eors	r7, r5
 8002558:	b2a5      	uxth	r5, r4
 800255a:	f833 4017 	ldrh.w	r4, [r3, r7, lsl #1]
 800255e:	ea84 2405 	eor.w	r4, r4, r5, lsl #8
 8002562:	fb06 2500 	mla	r5, r6, r0, r2
 8002566:	f3c4 17c7 	ubfx	r7, r4, #7, #8
 800256a:	78ed      	ldrb	r5, [r5, #3]
 800256c:	406f      	eors	r7, r5
 800256e:	b2a5      	uxth	r5, r4
 8002570:	f833 4017 	ldrh.w	r4, [r3, r7, lsl #1]
 8002574:	ea84 2405 	eor.w	r4, r4, r5, lsl #8
 8002578:	fb06 2500 	mla	r5, r6, r0, r2
 800257c:	f3c4 10c7 	ubfx	r0, r4, #7, #8
 8002580:	792e      	ldrb	r6, [r5, #4]
 8002582:	796d      	ldrb	r5, [r5, #5]
 8002584:	4070      	eors	r0, r6
 8002586:	b2a4      	uxth	r4, r4
 8002588:	f833 0010 	ldrh.w	r0, [r3, r0, lsl #1]
 800258c:	ea80 2004 	eor.w	r0, r0, r4, lsl #8
 8002590:	f3c0 14c7 	ubfx	r4, r0, #7, #8
 8002594:	406c      	eors	r4, r5
 8002596:	b280      	uxth	r0, r0
 8002598:	f833 3014 	ldrh.w	r3, [r3, r4, lsl #1]
 800259c:	eb02 040c 	add.w	r4, r2, ip
 80025a0:	ea83 2300 	eor.w	r3, r3, r0, lsl #8
 80025a4:	b21b      	sxth	r3, r3
 80025a6:	f812 000c 	ldrb.w	r0, [r2, ip]
 80025aa:	7862      	ldrb	r2, [r4, #1]
 80025ac:	fa03 f30e 	lsl.w	r3, r3, lr
 80025b0:	ea42 2200 	orr.w	r2, r2, r0, lsl #8
 80025b4:	b29b      	uxth	r3, r3
 80025b6:	429a      	cmp	r2, r3
 80025b8:	9b05      	ldr	r3, [sp, #20]
 80025ba:	4419      	add	r1, r3
 80025bc:	bf0b      	itete	eq
 80025be:	2000      	moveq	r0, #0
 80025c0:	f801 ec01 	strbne.w	lr, [r1, #-1]
 80025c4:	f801 0c01 	strbeq.w	r0, [r1, #-1]
 80025c8:	4670      	movne	r0, lr
 80025ca:	bdf0      	pop	{r4, r5, r6, r7, pc}
 80025cc:	080093fc 	stmdaeq	r0, {r2, r3, r4, r5, r6, r7, r8, r9, ip, pc}

080025d0 <LTC681x_rdaux_reg>:
 80025d0:	b530      	push	{r4, r5, lr}
 80025d2:	2801      	cmp	r0, #1
 80025d4:	b083      	sub	sp, #12
 80025d6:	460d      	mov	r5, r1
 80025d8:	4614      	mov	r4, r2
 80025da:	d005      	beq.n	80025e8 <LTC681x_rdaux_reg+0x18>
 80025dc:	2802      	cmp	r0, #2
 80025de:	d02c      	beq.n	800263a <LTC681x_rdaux_reg+0x6a>
 80025e0:	2803      	cmp	r0, #3
 80025e2:	d038      	beq.n	8002656 <LTC681x_rdaux_reg+0x86>
 80025e4:	2804      	cmp	r0, #4
 80025e6:	d02f      	beq.n	8002648 <LTC681x_rdaux_reg+0x78>
 80025e8:	f44f 6340 	mov.w	r3, #3072	@ 0xc00
 80025ec:	f8ad 3004 	strh.w	r3, [sp, #4]
 80025f0:	22ef      	movs	r2, #239	@ 0xef
 80025f2:	23cc      	movs	r3, #204	@ 0xcc
 80025f4:	2100      	movs	r1, #0
 80025f6:	4608      	mov	r0, r1
 80025f8:	f88d 2006 	strb.w	r2, [sp, #6]
 80025fc:	f88d 3007 	strb.w	r3, [sp, #7]
 8002600:	f001 fa92 	bl	8003b28 <BSP_SPI_SetStateCS>
 8002604:	2204      	movs	r2, #4
 8002606:	eb0d 0102 	add.w	r1, sp, r2
 800260a:	2000      	movs	r0, #0
 800260c:	f001 f8f6 	bl	80037fc <BSP_SPI_Write>
 8002610:	b158      	cbz	r0, 800262a <LTC681x_rdaux_reg+0x5a>
 8002612:	00ea      	lsls	r2, r5, #3
 8002614:	4621      	mov	r1, r4
 8002616:	2000      	movs	r0, #0
 8002618:	f001 f97c 	bl	8003914 <BSP_SPI_Read>
 800261c:	b128      	cbz	r0, 800262a <LTC681x_rdaux_reg+0x5a>
 800261e:	2101      	movs	r1, #1
 8002620:	2000      	movs	r0, #0
 8002622:	f001 fa81 	bl	8003b28 <BSP_SPI_SetStateCS>
 8002626:	b003      	add	sp, #12
 8002628:	bd30      	pop	{r4, r5, pc}
 800262a:	4a0e      	ldr	r2, [pc, #56]	@ (8002664 <LTC681x_rdaux_reg+0x94>)
 800262c:	8813      	ldrh	r3, [r2, #0]
 800262e:	f443 7380 	orr.w	r3, r3, #256	@ 0x100
 8002632:	8013      	strh	r3, [r2, #0]
 8002634:	f005 fc1c 	bl	8007e70 <EnterFaultState>
 8002638:	e7f1      	b.n	800261e <LTC681x_rdaux_reg+0x4e>
 800263a:	f44f 6360 	mov.w	r3, #3584	@ 0xe00
 800263e:	f8ad 3004 	strh.w	r3, [sp, #4]
 8002642:	2272      	movs	r2, #114	@ 0x72
 8002644:	239a      	movs	r3, #154	@ 0x9a
 8002646:	e7d5      	b.n	80025f4 <LTC681x_rdaux_reg+0x24>
 8002648:	f44f 6370 	mov.w	r3, #3840	@ 0xf00
 800264c:	f8ad 3004 	strh.w	r3, [sp, #4]
 8002650:	22f9      	movs	r2, #249	@ 0xf9
 8002652:	23a8      	movs	r3, #168	@ 0xa8
 8002654:	e7ce      	b.n	80025f4 <LTC681x_rdaux_reg+0x24>
 8002656:	f44f 6350 	mov.w	r3, #3328	@ 0xd00
 800265a:	f8ad 3004 	strh.w	r3, [sp, #4]
 800265e:	2264      	movs	r2, #100	@ 0x64
 8002660:	23fe      	movs	r3, #254	@ 0xfe
 8002662:	e7c7      	b.n	80025f4 <LTC681x_rdaux_reg+0x24>
 8002664:	2000162c 	andcs	r1, r0, ip, lsr #12

08002668 <LTC681x_rdcv>:
 8002668:	e92d 4ff0 	stmdb	sp!, {r4, r5, r6, r7, r8, r9, sl, fp, lr}
 800266c:	4607      	mov	r7, r0
 800266e:	b083      	sub	sp, #12
 8002670:	4688      	mov	r8, r1
 8002672:	4615      	mov	r5, r2
 8002674:	2800      	cmp	r0, #0
 8002676:	f040 80a9 	bne.w	80027cc <LTC681x_rdcv+0x164>
 800267a:	f892 00d9 	ldrb.w	r0, [r2, #217]	@ 0xd9
 800267e:	2800      	cmp	r0, #0
 8002680:	f000 80d3 	beq.w	800282a <LTC681x_rdcv+0x1c2>
 8002684:	f8df a1ac 	ldr.w	sl, [pc, #428]	@ 8002834 <LTC681x_rdcv+0x1cc>
 8002688:	2601      	movs	r6, #1
 800268a:	f101 39ff 	add.w	r9, r1, #4294967295	@ 0xffffffff
 800268e:	4652      	mov	r2, sl
 8002690:	4641      	mov	r1, r8
 8002692:	4630      	mov	r0, r6
 8002694:	f7ff febc 	bl	8002410 <LTC681x_rdcv_reg>
 8002698:	f1b8 0f00 	cmp.w	r8, #0
 800269c:	f000 808d 	beq.w	80027ba <LTC681x_rdcv+0x152>
 80026a0:	2400      	movs	r4, #0
 80026a2:	fa5f fc84 	uxtb.w	ip, r4
 80026a6:	eba9 030c 	sub.w	r3, r9, ip
 80026aa:	b2db      	uxtb	r3, r3
 80026ac:	ebc4 02c4 	rsb	r2, r4, r4, lsl #3
 80026b0:	f895 b0b9 	ldrb.w	fp, [r5, #185]	@ 0xb9
 80026b4:	ebc3 03c3 	rsb	r3, r3, r3, lsl #3
 80026b8:	eb05 1242 	add.w	r2, r5, r2, lsl #5
 80026bc:	eb05 1e43 	add.w	lr, r5, r3, lsl #5
 80026c0:	4660      	mov	r0, ip
 80026c2:	f102 0342 	add.w	r3, r2, #66	@ 0x42
 80026c6:	4631      	mov	r1, r6
 80026c8:	321e      	adds	r2, #30
 80026ca:	f1bb 0f00 	cmp.w	fp, #0
 80026ce:	d15f      	bne.n	8002790 <LTC681x_rdcv+0x128>
 80026d0:	f7ff fc02 	bl	8001ed8 <parse_cells.constprop.0>
 80026d4:	3401      	adds	r4, #1
 80026d6:	4407      	add	r7, r0
 80026d8:	45a0      	cmp	r8, r4
 80026da:	b2f8      	uxtb	r0, r7
 80026dc:	b27f      	sxtb	r7, r7
 80026de:	d1e0      	bne.n	80026a2 <LTC681x_rdcv+0x3a>
 80026e0:	f895 20d9 	ldrb.w	r2, [r5, #217]	@ 0xd9
 80026e4:	3601      	adds	r6, #1
 80026e6:	b2f6      	uxtb	r6, r6
 80026e8:	42b2      	cmp	r2, r6
 80026ea:	d2d0      	bcs.n	800268e <LTC681x_rdcv+0x26>
 80026ec:	f1b8 0f00 	cmp.w	r8, #0
 80026f0:	d04b      	beq.n	800278a <LTC681x_rdcv+0x122>
 80026f2:	2400      	movs	r4, #0
 80026f4:	2a00      	cmp	r2, #0
 80026f6:	d043      	beq.n	8002780 <LTC681x_rdcv+0x118>
 80026f8:	f895 3042 	ldrb.w	r3, [r5, #66]	@ 0x42
 80026fc:	f8b5 10be 	ldrh.w	r1, [r5, #190]	@ 0xbe
 8002700:	f8b5 60ba 	ldrh.w	r6, [r5, #186]	@ 0xba
 8002704:	4419      	add	r1, r3
 8002706:	2a01      	cmp	r2, #1
 8002708:	4433      	add	r3, r6
 800270a:	f8a5 10be 	strh.w	r1, [r5, #190]	@ 0xbe
 800270e:	b29b      	uxth	r3, r3
 8002710:	d034      	beq.n	800277c <LTC681x_rdcv+0x114>
 8002712:	f895 1043 	ldrb.w	r1, [r5, #67]	@ 0x43
 8002716:	f8b5 60c0 	ldrh.w	r6, [r5, #192]	@ 0xc0
 800271a:	440b      	add	r3, r1
 800271c:	2a02      	cmp	r2, #2
 800271e:	4431      	add	r1, r6
 8002720:	f8a5 10c0 	strh.w	r1, [r5, #192]	@ 0xc0
 8002724:	b29b      	uxth	r3, r3
 8002726:	d029      	beq.n	800277c <LTC681x_rdcv+0x114>
 8002728:	f895 1044 	ldrb.w	r1, [r5, #68]	@ 0x44
 800272c:	f8b5 60c2 	ldrh.w	r6, [r5, #194]	@ 0xc2
 8002730:	440b      	add	r3, r1
 8002732:	2a03      	cmp	r2, #3
 8002734:	4431      	add	r1, r6
 8002736:	f8a5 10c2 	strh.w	r1, [r5, #194]	@ 0xc2
 800273a:	b29b      	uxth	r3, r3
 800273c:	d01e      	beq.n	800277c <LTC681x_rdcv+0x114>
 800273e:	f895 1045 	ldrb.w	r1, [r5, #69]	@ 0x45
 8002742:	f8b5 60c4 	ldrh.w	r6, [r5, #196]	@ 0xc4
 8002746:	440b      	add	r3, r1
 8002748:	2a04      	cmp	r2, #4
 800274a:	4431      	add	r1, r6
 800274c:	f8a5 10c4 	strh.w	r1, [r5, #196]	@ 0xc4
 8002750:	b29b      	uxth	r3, r3
 8002752:	d013      	beq.n	800277c <LTC681x_rdcv+0x114>
 8002754:	f895 1046 	ldrb.w	r1, [r5, #70]	@ 0x46
 8002758:	f8b5 60c6 	ldrh.w	r6, [r5, #198]	@ 0xc6
 800275c:	440b      	add	r3, r1
 800275e:	2a05      	cmp	r2, #5
 8002760:	4431      	add	r1, r6
 8002762:	b29b      	uxth	r3, r3
 8002764:	f8a5 10c6 	strh.w	r1, [r5, #198]	@ 0xc6
 8002768:	d008      	beq.n	800277c <LTC681x_rdcv+0x114>
 800276a:	f895 1047 	ldrb.w	r1, [r5, #71]	@ 0x47
 800276e:	f8b5 60c8 	ldrh.w	r6, [r5, #200]	@ 0xc8
 8002772:	440b      	add	r3, r1
 8002774:	4431      	add	r1, r6
 8002776:	f8a5 10c8 	strh.w	r1, [r5, #200]	@ 0xc8
 800277a:	b29b      	uxth	r3, r3
 800277c:	f8a5 30ba 	strh.w	r3, [r5, #186]	@ 0xba
 8002780:	3401      	adds	r4, #1
 8002782:	45a0      	cmp	r8, r4
 8002784:	f105 05e0 	add.w	r5, r5, #224	@ 0xe0
 8002788:	dcb4      	bgt.n	80026f4 <LTC681x_rdcv+0x8c>
 800278a:	b003      	add	sp, #12
 800278c:	e8bd 8ff0 	ldmia.w	sp!, {r4, r5, r6, r7, r8, r9, sl, fp, pc}
 8002790:	f10e 0342 	add.w	r3, lr, #66	@ 0x42
 8002794:	f10e 021e 	add.w	r2, lr, #30
 8002798:	f7ff fb9e 	bl	8001ed8 <parse_cells.constprop.0>
 800279c:	3401      	adds	r4, #1
 800279e:	4407      	add	r7, r0
 80027a0:	4544      	cmp	r4, r8
 80027a2:	b2f8      	uxtb	r0, r7
 80027a4:	b27f      	sxtb	r7, r7
 80027a6:	f47f af7c 	bne.w	80026a2 <LTC681x_rdcv+0x3a>
 80027aa:	f895 20d9 	ldrb.w	r2, [r5, #217]	@ 0xd9
 80027ae:	3601      	adds	r6, #1
 80027b0:	b2f6      	uxtb	r6, r6
 80027b2:	42b2      	cmp	r2, r6
 80027b4:	f4bf af6b 	bcs.w	800268e <LTC681x_rdcv+0x26>
 80027b8:	e798      	b.n	80026ec <LTC681x_rdcv+0x84>
 80027ba:	f895 20d9 	ldrb.w	r2, [r5, #217]	@ 0xd9
 80027be:	3601      	adds	r6, #1
 80027c0:	b2f6      	uxtb	r6, r6
 80027c2:	42b2      	cmp	r2, r6
 80027c4:	b2f8      	uxtb	r0, r7
 80027c6:	f4bf af62 	bcs.w	800268e <LTC681x_rdcv+0x26>
 80027ca:	e78f      	b.n	80026ec <LTC681x_rdcv+0x84>
 80027cc:	4a19      	ldr	r2, [pc, #100]	@ (8002834 <LTC681x_rdcv+0x1cc>)
 80027ce:	f7ff fe1f 	bl	8002410 <LTC681x_rdcv_reg>
 80027d2:	f1b8 0f00 	cmp.w	r8, #0
 80027d6:	d02a      	beq.n	800282e <LTC681x_rdcv+0x1c6>
 80027d8:	2400      	movs	r4, #0
 80027da:	f8df 9058 	ldr.w	r9, [pc, #88]	@ 8002834 <LTC681x_rdcv+0x1cc>
 80027de:	4626      	mov	r6, r4
 80027e0:	f108 3aff 	add.w	sl, r8, #4294967295	@ 0xffffffff
 80027e4:	e013      	b.n	800280e <LTC681x_rdcv+0x1a6>
 80027e6:	4622      	mov	r2, r4
 80027e8:	ebc3 03c3 	rsb	r3, r3, r3, lsl #3
 80027ec:	eb05 1343 	add.w	r3, r5, r3, lsl #5
 80027f0:	f103 0142 	add.w	r1, r3, #66	@ 0x42
 80027f4:	9100      	str	r1, [sp, #0]
 80027f6:	eb09 02c2 	add.w	r2, r9, r2, lsl #3
 80027fa:	331e      	adds	r3, #30
 80027fc:	4639      	mov	r1, r7
 80027fe:	f7ff fe63 	bl	80024c8 <parse_cells>
 8002802:	3401      	adds	r4, #1
 8002804:	4406      	add	r6, r0
 8002806:	4544      	cmp	r4, r8
 8002808:	b2f0      	uxtb	r0, r6
 800280a:	b276      	sxtb	r6, r6
 800280c:	d00a      	beq.n	8002824 <LTC681x_rdcv+0x1bc>
 800280e:	f895 20b9 	ldrb.w	r2, [r5, #185]	@ 0xb9
 8002812:	b2e0      	uxtb	r0, r4
 8002814:	4603      	mov	r3, r0
 8002816:	2a00      	cmp	r2, #0
 8002818:	d0e5      	beq.n	80027e6 <LTC681x_rdcv+0x17e>
 800281a:	ebaa 0300 	sub.w	r3, sl, r0
 800281e:	b2db      	uxtb	r3, r3
 8002820:	461a      	mov	r2, r3
 8002822:	e7e1      	b.n	80027e8 <LTC681x_rdcv+0x180>
 8002824:	f895 20d9 	ldrb.w	r2, [r5, #217]	@ 0xd9
 8002828:	e763      	b.n	80026f2 <LTC681x_rdcv+0x8a>
 800282a:	4602      	mov	r2, r0
 800282c:	e75e      	b.n	80026ec <LTC681x_rdcv+0x84>
 800282e:	4640      	mov	r0, r8
 8002830:	e7ab      	b.n	800278a <LTC681x_rdcv+0x122>
 8002832:	bf00      	nop
 8002834:	20003ac8 	andcs	r3, r0, r8, asr #21

08002838 <LTC681x_rdaux>:
 8002838:	e92d 4ff0 	stmdb	sp!, {r4, r5, r6, r7, r8, r9, sl, fp, lr}
 800283c:	460e      	mov	r6, r1
 800283e:	b089      	sub	sp, #36	@ 0x24
 8002840:	4614      	mov	r4, r2
 8002842:	4605      	mov	r5, r0
 8002844:	2800      	cmp	r0, #0
 8002846:	f040 8087 	bne.w	8002958 <LTC681x_rdaux+0x120>
 800284a:	f892 20da 	ldrb.w	r2, [r2, #218]	@ 0xda
 800284e:	2a00      	cmp	r2, #0
 8002850:	f000 80c4 	beq.w	80029dc <LTC681x_rdaux+0x1a4>
 8002854:	2701      	movs	r7, #1
 8002856:	4681      	mov	r9, r0
 8002858:	f10d 0808 	add.w	r8, sp, #8
 800285c:	4642      	mov	r2, r8
 800285e:	4631      	mov	r1, r6
 8002860:	4638      	mov	r0, r7
 8002862:	f7ff feb5 	bl	80025d0 <LTC681x_rdaux_reg>
 8002866:	b3be      	cbz	r6, 80028d8 <LTC681x_rdaux+0xa0>
 8002868:	2501      	movs	r5, #1
 800286a:	e009      	b.n	8002880 <LTC681x_rdaux+0x48>
 800286c:	f8cd a000 	str.w	sl, [sp]
 8002870:	f7ff fe2a 	bl	80024c8 <parse_cells>
 8002874:	42b5      	cmp	r5, r6
 8002876:	f105 0301 	add.w	r3, r5, #1
 800287a:	4681      	mov	r9, r0
 800287c:	d02c      	beq.n	80028d8 <LTC681x_rdaux+0xa0>
 800287e:	461d      	mov	r5, r3
 8002880:	fa5f fe85 	uxtb.w	lr, r5
 8002884:	1e68      	subs	r0, r5, #1
 8002886:	eba6 0c0e 	sub.w	ip, r6, lr
 800288a:	b2c3      	uxtb	r3, r0
 800288c:	fa5f fc8c 	uxtb.w	ip, ip
 8002890:	ebc3 03c3 	rsb	r3, r3, r3, lsl #3
 8002894:	ebcc 0ccc 	rsb	ip, ip, ip, lsl #3
 8002898:	f894 b0b9 	ldrb.w	fp, [r4, #185]	@ 0xb9
 800289c:	eb04 1343 	add.w	r3, r4, r3, lsl #5
 80028a0:	eb04 1c4c 	add.w	ip, r4, ip, lsl #5
 80028a4:	f103 0a5a 	add.w	sl, r3, #90	@ 0x5a
 80028a8:	f10e 3eff 	add.w	lr, lr, #4294967295	@ 0xffffffff
 80028ac:	f10c 095a 	add.w	r9, ip, #90	@ 0x5a
 80028b0:	3348      	adds	r3, #72	@ 0x48
 80028b2:	4642      	mov	r2, r8
 80028b4:	4639      	mov	r1, r7
 80028b6:	b2c0      	uxtb	r0, r0
 80028b8:	f1bb 0f00 	cmp.w	fp, #0
 80028bc:	d0d6      	beq.n	800286c <LTC681x_rdaux+0x34>
 80028be:	f8cd 9000 	str.w	r9, [sp]
 80028c2:	f10c 0348 	add.w	r3, ip, #72	@ 0x48
 80028c6:	fa5f f08e 	uxtb.w	r0, lr
 80028ca:	f7ff fdfd 	bl	80024c8 <parse_cells>
 80028ce:	42b5      	cmp	r5, r6
 80028d0:	f105 0301 	add.w	r3, r5, #1
 80028d4:	4681      	mov	r9, r0
 80028d6:	d1d2      	bne.n	800287e <LTC681x_rdaux+0x46>
 80028d8:	f894 20da 	ldrb.w	r2, [r4, #218]	@ 0xda
 80028dc:	3701      	adds	r7, #1
 80028de:	b2ff      	uxtb	r7, r7
 80028e0:	42ba      	cmp	r2, r7
 80028e2:	d2bb      	bcs.n	800285c <LTC681x_rdaux+0x24>
 80028e4:	b3a6      	cbz	r6, 8002950 <LTC681x_rdaux+0x118>
 80028e6:	2000      	movs	r0, #0
 80028e8:	b36a      	cbz	r2, 8002946 <LTC681x_rdaux+0x10e>
 80028ea:	f894 305a 	ldrb.w	r3, [r4, #90]	@ 0x5a
 80028ee:	f8b4 10ca 	ldrh.w	r1, [r4, #202]	@ 0xca
 80028f2:	f8b4 50ba 	ldrh.w	r5, [r4, #186]	@ 0xba
 80028f6:	4419      	add	r1, r3
 80028f8:	2a01      	cmp	r2, #1
 80028fa:	442b      	add	r3, r5
 80028fc:	f8a4 10ca 	strh.w	r1, [r4, #202]	@ 0xca
 8002900:	b29b      	uxth	r3, r3
 8002902:	d01e      	beq.n	8002942 <LTC681x_rdaux+0x10a>
 8002904:	f894 105b 	ldrb.w	r1, [r4, #91]	@ 0x5b
 8002908:	f8b4 50cc 	ldrh.w	r5, [r4, #204]	@ 0xcc
 800290c:	440b      	add	r3, r1
 800290e:	2a02      	cmp	r2, #2
 8002910:	4429      	add	r1, r5
 8002912:	f8a4 10cc 	strh.w	r1, [r4, #204]	@ 0xcc
 8002916:	b29b      	uxth	r3, r3
 8002918:	d013      	beq.n	8002942 <LTC681x_rdaux+0x10a>
 800291a:	f894 105c 	ldrb.w	r1, [r4, #92]	@ 0x5c
 800291e:	f8b4 50ce 	ldrh.w	r5, [r4, #206]	@ 0xce
 8002922:	440b      	add	r3, r1
 8002924:	2a03      	cmp	r2, #3
 8002926:	4429      	add	r1, r5
 8002928:	b29b      	uxth	r3, r3
 800292a:	f8a4 10ce 	strh.w	r1, [r4, #206]	@ 0xce
 800292e:	d008      	beq.n	8002942 <LTC681x_rdaux+0x10a>
 8002930:	f894 105d 	ldrb.w	r1, [r4, #93]	@ 0x5d
 8002934:	f8b4 50d0 	ldrh.w	r5, [r4, #208]	@ 0xd0
 8002938:	440b      	add	r3, r1
 800293a:	4429      	add	r1, r5
 800293c:	f8a4 10d0 	strh.w	r1, [r4, #208]	@ 0xd0
 8002940:	b29b      	uxth	r3, r3
 8002942:	f8a4 30ba 	strh.w	r3, [r4, #186]	@ 0xba
 8002946:	3001      	adds	r0, #1
 8002948:	4286      	cmp	r6, r0
 800294a:	f104 04e0 	add.w	r4, r4, #224	@ 0xe0
 800294e:	dccb      	bgt.n	80028e8 <LTC681x_rdaux+0xb0>
 8002950:	4648      	mov	r0, r9
 8002952:	b009      	add	sp, #36	@ 0x24
 8002954:	e8bd 8ff0 	ldmia.w	sp!, {r4, r5, r6, r7, r8, r9, sl, fp, pc}
 8002958:	f10d 0808 	add.w	r8, sp, #8
 800295c:	4642      	mov	r2, r8
 800295e:	f7ff fe37 	bl	80025d0 <LTC681x_rdaux_reg>
 8002962:	2e00      	cmp	r6, #0
 8002964:	d03c      	beq.n	80029e0 <LTC681x_rdaux+0x1a8>
 8002966:	2701      	movs	r7, #1
 8002968:	e00a      	b.n	8002980 <LTC681x_rdaux+0x148>
 800296a:	f8cd e000 	str.w	lr, [sp]
 800296e:	4629      	mov	r1, r5
 8002970:	f7ff fdaa 	bl	80024c8 <parse_cells>
 8002974:	42b7      	cmp	r7, r6
 8002976:	f107 0301 	add.w	r3, r7, #1
 800297a:	4681      	mov	r9, r0
 800297c:	d02b      	beq.n	80029d6 <LTC681x_rdaux+0x19e>
 800297e:	461f      	mov	r7, r3
 8002980:	fa5f fc87 	uxtb.w	ip, r7
 8002984:	1e78      	subs	r0, r7, #1
 8002986:	eba6 020c 	sub.w	r2, r6, ip
 800298a:	b2c3      	uxtb	r3, r0
 800298c:	b2d2      	uxtb	r2, r2
 800298e:	ebc2 02c2 	rsb	r2, r2, r2, lsl #3
 8002992:	ebc3 03c3 	rsb	r3, r3, r3, lsl #3
 8002996:	f894 a0b9 	ldrb.w	sl, [r4, #185]	@ 0xb9
 800299a:	eb04 1343 	add.w	r3, r4, r3, lsl #5
 800299e:	eb04 1142 	add.w	r1, r4, r2, lsl #5
 80029a2:	f103 0e5a 	add.w	lr, r3, #90	@ 0x5a
 80029a6:	f10c 3cff 	add.w	ip, ip, #4294967295	@ 0xffffffff
 80029aa:	f101 095a 	add.w	r9, r1, #90	@ 0x5a
 80029ae:	3348      	adds	r3, #72	@ 0x48
 80029b0:	4642      	mov	r2, r8
 80029b2:	b2c0      	uxtb	r0, r0
 80029b4:	f1ba 0f00 	cmp.w	sl, #0
 80029b8:	d0d7      	beq.n	800296a <LTC681x_rdaux+0x132>
 80029ba:	f101 0348 	add.w	r3, r1, #72	@ 0x48
 80029be:	f8cd 9000 	str.w	r9, [sp]
 80029c2:	fa5f f08c 	uxtb.w	r0, ip
 80029c6:	4629      	mov	r1, r5
 80029c8:	f7ff fd7e 	bl	80024c8 <parse_cells>
 80029cc:	42b7      	cmp	r7, r6
 80029ce:	f107 0301 	add.w	r3, r7, #1
 80029d2:	4681      	mov	r9, r0
 80029d4:	d1d3      	bne.n	800297e <LTC681x_rdaux+0x146>
 80029d6:	f894 20da 	ldrb.w	r2, [r4, #218]	@ 0xda
 80029da:	e784      	b.n	80028e6 <LTC681x_rdaux+0xae>
 80029dc:	4691      	mov	r9, r2
 80029de:	e781      	b.n	80028e4 <LTC681x_rdaux+0xac>
 80029e0:	46b1      	mov	r9, r6
 80029e2:	e7b5      	b.n	8002950 <LTC681x_rdaux+0x118>

080029e4 <LTC681x_wrcfg>:
 80029e4:	e92d 43f0 	stmdb	sp!, {r4, r5, r6, r7, r8, r9, lr}
 80029e8:	b0c3      	sub	sp, #268	@ 0x10c
 80029ea:	f44f 7280 	mov.w	r2, #256	@ 0x100
 80029ee:	f8ad 2004 	strh.w	r2, [sp, #4]
 80029f2:	aa02      	add	r2, sp, #8
 80029f4:	b3b0      	cbz	r0, 8002a64 <LTC681x_wrcfg+0x80>
 80029f6:	f891 30b9 	ldrb.w	r3, [r1, #185]	@ 0xb9
 80029fa:	460f      	mov	r7, r1
 80029fc:	2b00      	cmp	r3, #0
 80029fe:	d137      	bne.n	8002a70 <LTC681x_wrcfg+0x8c>
 8002a00:	f100 3eff 	add.w	lr, r0, #4294967295	@ 0xffffffff
 8002a04:	fa5f fe8e 	uxtb.w	lr, lr
 8002a08:	469c      	mov	ip, r3
 8002a0a:	aa02      	add	r2, sp, #8
 8002a0c:	ebce 03ce 	rsb	r3, lr, lr, lsl #3
 8002a10:	eb07 1143 	add.w	r1, r7, r3, lsl #5
 8002a14:	f10c 0402 	add.w	r4, ip, #2
 8002a18:	015b      	lsls	r3, r3, #5
 8002a1a:	b2e4      	uxtb	r4, r4
 8002a1c:	f837 8003 	ldrh.w	r8, [r7, r3]
 8002a20:	788b      	ldrb	r3, [r1, #2]
 8002a22:	f822 800c 	strh.w	r8, [r2, ip]
 8002a26:	f10c 0603 	add.w	r6, ip, #3
 8002a2a:	5513      	strb	r3, [r2, r4]
 8002a2c:	f10c 0504 	add.w	r5, ip, #4
 8002a30:	f10c 0405 	add.w	r4, ip, #5
 8002a34:	f10e 3eff 	add.w	lr, lr, #4294967295	@ 0xffffffff
 8002a38:	b2f6      	uxtb	r6, r6
 8002a3a:	b2ed      	uxtb	r5, r5
 8002a3c:	fa5f fe8e 	uxtb.w	lr, lr
 8002a40:	b2e4      	uxtb	r4, r4
 8002a42:	f891 9003 	ldrb.w	r9, [r1, #3]
 8002a46:	f891 8004 	ldrb.w	r8, [r1, #4]
 8002a4a:	794b      	ldrb	r3, [r1, #5]
 8002a4c:	f802 9006 	strb.w	r9, [r2, r6]
 8002a50:	f10c 0c06 	add.w	ip, ip, #6
 8002a54:	f1be 0fff 	cmp.w	lr, #255	@ 0xff
 8002a58:	f802 8005 	strb.w	r8, [r2, r5]
 8002a5c:	fa5f fc8c 	uxtb.w	ip, ip
 8002a60:	5513      	strb	r3, [r2, r4]
 8002a62:	d1d3      	bne.n	8002a0c <LTC681x_wrcfg+0x28>
 8002a64:	a901      	add	r1, sp, #4
 8002a66:	f7ff fb13 	bl	8002090 <write_68>
 8002a6a:	b043      	add	sp, #268	@ 0x10c
 8002a6c:	e8bd 83f0 	ldmia.w	sp!, {r4, r5, r6, r7, r8, r9, pc}
 8002a70:	1e42      	subs	r2, r0, #1
 8002a72:	b2d2      	uxtb	r2, r2
 8002a74:	460b      	mov	r3, r1
 8002a76:	26e0      	movs	r6, #224	@ 0xe0
 8002a78:	31e0      	adds	r1, #224	@ 0xe0
 8002a7a:	fb16 1602 	smlabb	r6, r6, r2, r1
 8002a7e:	2100      	movs	r1, #0
 8002a80:	aa02      	add	r2, sp, #8
 8002a82:	881c      	ldrh	r4, [r3, #0]
 8002a84:	5254      	strh	r4, [r2, r1]
 8002a86:	f101 0e03 	add.w	lr, r1, #3
 8002a8a:	1c8c      	adds	r4, r1, #2
 8002a8c:	b2e4      	uxtb	r4, r4
 8002a8e:	fa5f fe8e 	uxtb.w	lr, lr
 8002a92:	78dd      	ldrb	r5, [r3, #3]
 8002a94:	f893 8002 	ldrb.w	r8, [r3, #2]
 8002a98:	f802 8004 	strb.w	r8, [r2, r4]
 8002a9c:	1d0f      	adds	r7, r1, #4
 8002a9e:	f101 0c05 	add.w	ip, r1, #5
 8002aa2:	f802 500e 	strb.w	r5, [r2, lr]
 8002aa6:	795c      	ldrb	r4, [r3, #5]
 8002aa8:	791d      	ldrb	r5, [r3, #4]
 8002aaa:	b2ff      	uxtb	r7, r7
 8002aac:	fa5f fc8c 	uxtb.w	ip, ip
 8002ab0:	33e0      	adds	r3, #224	@ 0xe0
 8002ab2:	3106      	adds	r1, #6
 8002ab4:	42b3      	cmp	r3, r6
 8002ab6:	55d5      	strb	r5, [r2, r7]
 8002ab8:	b2c9      	uxtb	r1, r1
 8002aba:	f802 400c 	strb.w	r4, [r2, ip]
 8002abe:	d1e0      	bne.n	8002a82 <LTC681x_wrcfg+0x9e>
 8002ac0:	a901      	add	r1, sp, #4
 8002ac2:	f7ff fae5 	bl	8002090 <write_68>
 8002ac6:	b043      	add	sp, #268	@ 0x10c
 8002ac8:	e8bd 83f0 	ldmia.w	sp!, {r4, r5, r6, r7, r8, r9, pc}

08002acc <LTC681x_rdcfg>:
 8002acc:	e92d 4ff0 	stmdb	sp!, {r4, r5, r6, r7, r8, r9, sl, fp, lr}
 8002ad0:	b0c3      	sub	sp, #268	@ 0x10c
 8002ad2:	4605      	mov	r5, r0
 8002ad4:	460c      	mov	r4, r1
 8002ad6:	f44f 7300 	mov.w	r3, #512	@ 0x200
 8002ada:	a901      	add	r1, sp, #4
 8002adc:	aa02      	add	r2, sp, #8
 8002ade:	f8ad 3004 	strh.w	r3, [sp, #4]
 8002ae2:	f7ff fb8b 	bl	80021fc <read_68>
 8002ae6:	2d00      	cmp	r5, #0
 8002ae8:	f000 8083 	beq.w	8002bf2 <LTC681x_rdcfg+0x126>
 8002aec:	2700      	movs	r7, #0
 8002aee:	f894 90b9 	ldrb.w	r9, [r4, #185]	@ 0xb9
 8002af2:	4941      	ldr	r1, [pc, #260]	@ (8002bf8 <LTC681x_rdcfg+0x12c>)
 8002af4:	aa02      	add	r2, sp, #8
 8002af6:	463e      	mov	r6, r7
 8002af8:	f105 38ff 	add.w	r8, r5, #4294967295	@ 0xffffffff
 8002afc:	eba8 0306 	sub.w	r3, r8, r6
 8002b00:	f1b9 0f00 	cmp.w	r9, #0
 8002b04:	bf08      	it	eq
 8002b06:	4633      	moveq	r3, r6
 8002b08:	b2db      	uxtb	r3, r3
 8002b0a:	ebc3 03c3 	rsb	r3, r3, r3, lsl #3
 8002b0e:	eb04 1343 	add.w	r3, r4, r3, lsl #5
 8002b12:	f8d2 a000 	ldr.w	sl, [r2]
 8002b16:	f892 c000 	ldrb.w	ip, [r2]
 8002b1a:	7996      	ldrb	r6, [r2, #6]
 8002b1c:	f892 e007 	ldrb.w	lr, [r2, #7]
 8002b20:	f8c3 a006 	str.w	sl, [r3, #6]
 8002b24:	3208      	adds	r2, #8
 8002b26:	f852 ac04 	ldr.w	sl, [r2, #-4]
 8002b2a:	f831 c01c 	ldrh.w	ip, [r1, ip, lsl #1]
 8002b2e:	f8c3 a00a 	str.w	sl, [r3, #10]
 8002b32:	f812 ac07 	ldrb.w	sl, [r2, #-7]
 8002b36:	f48c 5c80 	eor.w	ip, ip, #4096	@ 0x1000
 8002b3a:	ea8a 1adc 	eor.w	sl, sl, ip, lsr #7
 8002b3e:	fa5f fa8a 	uxtb.w	sl, sl
 8002b42:	ea4e 2e06 	orr.w	lr, lr, r6, lsl #8
 8002b46:	f831 a01a 	ldrh.w	sl, [r1, sl, lsl #1]
 8002b4a:	ea8a 2c0c 	eor.w	ip, sl, ip, lsl #8
 8002b4e:	f812 ac06 	ldrb.w	sl, [r2, #-6]
 8002b52:	fa1f fb8c 	uxth.w	fp, ip
 8002b56:	f3cc 1cc7 	ubfx	ip, ip, #7, #8
 8002b5a:	ea8c 0c0a 	eor.w	ip, ip, sl
 8002b5e:	3701      	adds	r7, #1
 8002b60:	f831 a01c 	ldrh.w	sl, [r1, ip, lsl #1]
 8002b64:	f812 cc05 	ldrb.w	ip, [r2, #-5]
 8002b68:	ea8a 2a0b 	eor.w	sl, sl, fp, lsl #8
 8002b6c:	fa1f fb8a 	uxth.w	fp, sl
 8002b70:	f3ca 1ac7 	ubfx	sl, sl, #7, #8
 8002b74:	ea8a 0a0c 	eor.w	sl, sl, ip
 8002b78:	b2fe      	uxtb	r6, r7
 8002b7a:	f831 c01a 	ldrh.w	ip, [r1, sl, lsl #1]
 8002b7e:	ea8c 2c0b 	eor.w	ip, ip, fp, lsl #8
 8002b82:	f812 bc04 	ldrb.w	fp, [r2, #-4]
 8002b86:	fa1f fa8c 	uxth.w	sl, ip
 8002b8a:	f3cc 1cc7 	ubfx	ip, ip, #7, #8
 8002b8e:	ea8c 0c0b 	eor.w	ip, ip, fp
 8002b92:	f812 bc03 	ldrb.w	fp, [r2, #-3]
 8002b96:	f831 c01c 	ldrh.w	ip, [r1, ip, lsl #1]
 8002b9a:	ea8c 2c0a 	eor.w	ip, ip, sl, lsl #8
 8002b9e:	fa1f fa8c 	uxth.w	sl, ip
 8002ba2:	f3cc 1cc7 	ubfx	ip, ip, #7, #8
 8002ba6:	ea8c 0c0b 	eor.w	ip, ip, fp
 8002baa:	f831 c01c 	ldrh.w	ip, [r1, ip, lsl #1]
 8002bae:	ea8c 2c0a 	eor.w	ip, ip, sl, lsl #8
 8002bb2:	fa0f fc8c 	sxth.w	ip, ip
 8002bb6:	ea4f 0c4c 	mov.w	ip, ip, lsl #1
 8002bba:	fa1f fc8c 	uxth.w	ip, ip
 8002bbe:	ebbe 0c0c 	subs.w	ip, lr, ip
 8002bc2:	bf18      	it	ne
 8002bc4:	f04f 0c01 	movne.w	ip, #1
 8002bc8:	42b5      	cmp	r5, r6
 8002bca:	f883 c00e 	strb.w	ip, [r3, #14]
 8002bce:	d895      	bhi.n	8002afc <LTC681x_rdcfg+0x30>
 8002bd0:	23e0      	movs	r3, #224	@ 0xe0
 8002bd2:	fb13 4505 	smlabb	r5, r3, r5, r4
 8002bd6:	7ba3      	ldrb	r3, [r4, #14]
 8002bd8:	f8b4 20ba 	ldrh.w	r2, [r4, #186]	@ 0xba
 8002bdc:	f8b4 10bc 	ldrh.w	r1, [r4, #188]	@ 0xbc
 8002be0:	441a      	add	r2, r3
 8002be2:	440b      	add	r3, r1
 8002be4:	f8a4 20ba 	strh.w	r2, [r4, #186]	@ 0xba
 8002be8:	f8a4 30bc 	strh.w	r3, [r4, #188]	@ 0xbc
 8002bec:	34e0      	adds	r4, #224	@ 0xe0
 8002bee:	42ac      	cmp	r4, r5
 8002bf0:	d1f1      	bne.n	8002bd6 <LTC681x_rdcfg+0x10a>
 8002bf2:	b043      	add	sp, #268	@ 0x10c
 8002bf4:	e8bd 8ff0 	ldmia.w	sp!, {r4, r5, r6, r7, r8, r9, sl, fp, pc}
 8002bf8:	080093fc 	stmdaeq	r0, {r2, r3, r4, r5, r6, r7, r8, r9, ip, pc}

08002bfc <LTC681x_reset_crc_count>:
 8002bfc:	b178      	cbz	r0, 8002c1e <LTC681x_reset_crc_count+0x22>
 8002bfe:	f101 03ba 	add.w	r3, r1, #186	@ 0xba
 8002c02:	21e0      	movs	r1, #224	@ 0xe0
 8002c04:	fb11 3100 	smlabb	r1, r1, r0, r3
 8002c08:	2200      	movs	r2, #0
 8002c0a:	601a      	str	r2, [r3, #0]
 8002c0c:	605a      	str	r2, [r3, #4]
 8002c0e:	609a      	str	r2, [r3, #8]
 8002c10:	60da      	str	r2, [r3, #12]
 8002c12:	611a      	str	r2, [r3, #16]
 8002c14:	615a      	str	r2, [r3, #20]
 8002c16:	619a      	str	r2, [r3, #24]
 8002c18:	33e0      	adds	r3, #224	@ 0xe0
 8002c1a:	428b      	cmp	r3, r1
 8002c1c:	d1f5      	bne.n	8002c0a <LTC681x_reset_crc_count+0xe>
 8002c1e:	4770      	bx	lr

08002c20 <LTC681x_set_cfgr_dis>:
 8002c20:	ebc0 00c0 	rsb	r0, r0, r0, lsl #3
 8002c24:	eb01 1140 	add.w	r1, r1, r0, lsl #5
 8002c28:	7810      	ldrb	r0, [r2, #0]
 8002c2a:	790b      	ldrb	r3, [r1, #4]
 8002c2c:	2800      	cmp	r0, #0
 8002c2e:	d153      	bne.n	8002cd8 <LTC681x_set_cfgr_dis+0xb8>
 8002c30:	f003 03fe 	and.w	r3, r3, #254	@ 0xfe
 8002c34:	7850      	ldrb	r0, [r2, #1]
 8002c36:	2800      	cmp	r0, #0
 8002c38:	d14b      	bne.n	8002cd2 <LTC681x_set_cfgr_dis+0xb2>
 8002c3a:	f003 03fd 	and.w	r3, r3, #253	@ 0xfd
 8002c3e:	7890      	ldrb	r0, [r2, #2]
 8002c40:	2800      	cmp	r0, #0
 8002c42:	d143      	bne.n	8002ccc <LTC681x_set_cfgr_dis+0xac>
 8002c44:	f003 03fb 	and.w	r3, r3, #251	@ 0xfb
 8002c48:	78d0      	ldrb	r0, [r2, #3]
 8002c4a:	2800      	cmp	r0, #0
 8002c4c:	d13b      	bne.n	8002cc6 <LTC681x_set_cfgr_dis+0xa6>
 8002c4e:	f003 03f7 	and.w	r3, r3, #247	@ 0xf7
 8002c52:	7910      	ldrb	r0, [r2, #4]
 8002c54:	2800      	cmp	r0, #0
 8002c56:	d133      	bne.n	8002cc0 <LTC681x_set_cfgr_dis+0xa0>
 8002c58:	f003 03ef 	and.w	r3, r3, #239	@ 0xef
 8002c5c:	7950      	ldrb	r0, [r2, #5]
 8002c5e:	bb60      	cbnz	r0, 8002cba <LTC681x_set_cfgr_dis+0x9a>
 8002c60:	f003 03df 	and.w	r3, r3, #223	@ 0xdf
 8002c64:	7990      	ldrb	r0, [r2, #6]
 8002c66:	bb28      	cbnz	r0, 8002cb4 <LTC681x_set_cfgr_dis+0x94>
 8002c68:	f003 03bf 	and.w	r3, r3, #191	@ 0xbf
 8002c6c:	79d0      	ldrb	r0, [r2, #7]
 8002c6e:	b1a8      	cbz	r0, 8002c9c <LTC681x_set_cfgr_dis+0x7c>
 8002c70:	f063 037f 	orn	r3, r3, #127	@ 0x7f
 8002c74:	710b      	strb	r3, [r1, #4]
 8002c76:	7a10      	ldrb	r0, [r2, #8]
 8002c78:	794b      	ldrb	r3, [r1, #5]
 8002c7a:	b9b0      	cbnz	r0, 8002caa <LTC681x_set_cfgr_dis+0x8a>
 8002c7c:	7a50      	ldrb	r0, [r2, #9]
 8002c7e:	f003 03fe 	and.w	r3, r3, #254	@ 0xfe
 8002c82:	bb60      	cbnz	r0, 8002cde <LTC681x_set_cfgr_dis+0xbe>
 8002c84:	7a90      	ldrb	r0, [r2, #10]
 8002c86:	f003 03fd 	and.w	r3, r3, #253	@ 0xfd
 8002c8a:	bb68      	cbnz	r0, 8002ce8 <LTC681x_set_cfgr_dis+0xc8>
 8002c8c:	7ad2      	ldrb	r2, [r2, #11]
 8002c8e:	f003 03fb 	and.w	r3, r3, #251	@ 0xfb
 8002c92:	b372      	cbz	r2, 8002cf2 <LTC681x_set_cfgr_dis+0xd2>
 8002c94:	f043 0308 	orr.w	r3, r3, #8
 8002c98:	714b      	strb	r3, [r1, #5]
 8002c9a:	4770      	bx	lr
 8002c9c:	f003 037f 	and.w	r3, r3, #127	@ 0x7f
 8002ca0:	710b      	strb	r3, [r1, #4]
 8002ca2:	7a10      	ldrb	r0, [r2, #8]
 8002ca4:	794b      	ldrb	r3, [r1, #5]
 8002ca6:	2800      	cmp	r0, #0
 8002ca8:	d0e8      	beq.n	8002c7c <LTC681x_set_cfgr_dis+0x5c>
 8002caa:	7a50      	ldrb	r0, [r2, #9]
 8002cac:	f043 0301 	orr.w	r3, r3, #1
 8002cb0:	b9a8      	cbnz	r0, 8002cde <LTC681x_set_cfgr_dis+0xbe>
 8002cb2:	e7e7      	b.n	8002c84 <LTC681x_set_cfgr_dis+0x64>
 8002cb4:	f043 0340 	orr.w	r3, r3, #64	@ 0x40
 8002cb8:	e7d8      	b.n	8002c6c <LTC681x_set_cfgr_dis+0x4c>
 8002cba:	f043 0320 	orr.w	r3, r3, #32
 8002cbe:	e7d1      	b.n	8002c64 <LTC681x_set_cfgr_dis+0x44>
 8002cc0:	f043 0310 	orr.w	r3, r3, #16
 8002cc4:	e7ca      	b.n	8002c5c <LTC681x_set_cfgr_dis+0x3c>
 8002cc6:	f043 0308 	orr.w	r3, r3, #8
 8002cca:	e7c2      	b.n	8002c52 <LTC681x_set_cfgr_dis+0x32>
 8002ccc:	f043 0304 	orr.w	r3, r3, #4
 8002cd0:	e7ba      	b.n	8002c48 <LTC681x_set_cfgr_dis+0x28>
 8002cd2:	f043 0302 	orr.w	r3, r3, #2
 8002cd6:	e7b2      	b.n	8002c3e <LTC681x_set_cfgr_dis+0x1e>
 8002cd8:	f043 0301 	orr.w	r3, r3, #1
 8002cdc:	e7aa      	b.n	8002c34 <LTC681x_set_cfgr_dis+0x14>
 8002cde:	7a90      	ldrb	r0, [r2, #10]
 8002ce0:	f043 0302 	orr.w	r3, r3, #2
 8002ce4:	2800      	cmp	r0, #0
 8002ce6:	d0d1      	beq.n	8002c8c <LTC681x_set_cfgr_dis+0x6c>
 8002ce8:	7ad2      	ldrb	r2, [r2, #11]
 8002cea:	f043 0304 	orr.w	r3, r3, #4
 8002cee:	2a00      	cmp	r2, #0
 8002cf0:	d1d0      	bne.n	8002c94 <LTC681x_set_cfgr_dis+0x74>
 8002cf2:	f023 0308 	bic.w	r3, r3, #8
 8002cf6:	714b      	strb	r3, [r1, #5]
 8002cf8:	4770      	bx	lr
 8002cfa:	bf00      	nop

08002cfc <LTC681x_init_cfg>:
 8002cfc:	e92d 47f0 	stmdb	sp!, {r4, r5, r6, r7, r8, r9, sl, lr}
 8002d00:	b084      	sub	sp, #16
 8002d02:	2500      	movs	r5, #0
 8002d04:	e9cd 5501 	strd	r5, r5, [sp, #4]
 8002d08:	9503      	str	r5, [sp, #12]
 8002d0a:	b1f0      	cbz	r0, 8002d4a <LTC681x_init_cfg+0x4e>
 8002d0c:	4688      	mov	r8, r1
 8002d0e:	4607      	mov	r7, r0
 8002d10:	f101 040f 	add.w	r4, r1, #15
 8002d14:	462e      	mov	r6, r5
 8002d16:	f04f 0a04 	mov.w	sl, #4
 8002d1a:	f04f 09fc 	mov.w	r9, #252	@ 0xfc
 8002d1e:	4628      	mov	r0, r5
 8002d20:	3501      	adds	r5, #1
 8002d22:	f844 ac0f 	str.w	sl, [r4, #-15]
 8002d26:	6026      	str	r6, [r4, #0]
 8002d28:	f804 6c0b 	strb.w	r6, [r4, #-11]
 8002d2c:	7126      	strb	r6, [r4, #4]
 8002d2e:	f804 6c0a 	strb.w	r6, [r4, #-10]
 8002d32:	7166      	strb	r6, [r4, #5]
 8002d34:	f804 9c0f 	strb.w	r9, [r4, #-15]
 8002d38:	aa01      	add	r2, sp, #4
 8002d3a:	4641      	mov	r1, r8
 8002d3c:	b2ed      	uxtb	r5, r5
 8002d3e:	f7ff ff6f 	bl	8002c20 <LTC681x_set_cfgr_dis>
 8002d42:	42af      	cmp	r7, r5
 8002d44:	f104 04e0 	add.w	r4, r4, #224	@ 0xe0
 8002d48:	d1e9      	bne.n	8002d1e <LTC681x_init_cfg+0x22>
 8002d4a:	b004      	add	sp, #16
 8002d4c:	e8bd 87f0 	ldmia.w	sp!, {r4, r5, r6, r7, r8, r9, sl, pc}

08002d50 <LTC681x_wrcomm>:
 8002d50:	e92d 43f0 	stmdb	sp!, {r4, r5, r6, r7, r8, r9, lr}
 8002d54:	b0c3      	sub	sp, #268	@ 0x10c
 8002d56:	f242 1207 	movw	r2, #8455	@ 0x2107
 8002d5a:	f8ad 2004 	strh.w	r2, [sp, #4]
 8002d5e:	aa02      	add	r2, sp, #8
 8002d60:	b398      	cbz	r0, 8002dca <LTC681x_wrcomm+0x7a>
 8002d62:	f891 20b9 	ldrb.w	r2, [r1, #185]	@ 0xb9
 8002d66:	460b      	mov	r3, r1
 8002d68:	bbaa      	cbnz	r2, 8002dd6 <LTC681x_wrcomm+0x86>
 8002d6a:	1e47      	subs	r7, r0, #1
 8002d6c:	4694      	mov	ip, r2
 8002d6e:	b2ff      	uxtb	r7, r7
 8002d70:	aa02      	add	r2, sp, #8
 8002d72:	ebc7 09c7 	rsb	r9, r7, r7, lsl #3
 8002d76:	eb03 1949 	add.w	r9, r3, r9, lsl #5
 8002d7a:	f10c 0402 	add.w	r4, ip, #2
 8002d7e:	f8b9 506e 	ldrh.w	r5, [r9, #110]	@ 0x6e
 8002d82:	f822 500c 	strh.w	r5, [r2, ip]
 8002d86:	f10c 0103 	add.w	r1, ip, #3
 8002d8a:	f10c 0804 	add.w	r8, ip, #4
 8002d8e:	f10c 0e05 	add.w	lr, ip, #5
 8002d92:	b2e4      	uxtb	r4, r4
 8002d94:	3f01      	subs	r7, #1
 8002d96:	f899 5070 	ldrb.w	r5, [r9, #112]	@ 0x70
 8002d9a:	5515      	strb	r5, [r2, r4]
 8002d9c:	b2c9      	uxtb	r1, r1
 8002d9e:	fa5f f888 	uxtb.w	r8, r8
 8002da2:	fa5f fe8e 	uxtb.w	lr, lr
 8002da6:	b2ff      	uxtb	r7, r7
 8002da8:	f899 6071 	ldrb.w	r6, [r9, #113]	@ 0x71
 8002dac:	f899 5072 	ldrb.w	r5, [r9, #114]	@ 0x72
 8002db0:	f899 4073 	ldrb.w	r4, [r9, #115]	@ 0x73
 8002db4:	5456      	strb	r6, [r2, r1]
 8002db6:	f10c 0c06 	add.w	ip, ip, #6
 8002dba:	2fff      	cmp	r7, #255	@ 0xff
 8002dbc:	f802 5008 	strb.w	r5, [r2, r8]
 8002dc0:	fa5f fc8c 	uxtb.w	ip, ip
 8002dc4:	f802 400e 	strb.w	r4, [r2, lr]
 8002dc8:	d1d3      	bne.n	8002d72 <LTC681x_wrcomm+0x22>
 8002dca:	a901      	add	r1, sp, #4
 8002dcc:	f7ff f960 	bl	8002090 <write_68>
 8002dd0:	b043      	add	sp, #268	@ 0x10c
 8002dd2:	e8bd 83f0 	ldmia.w	sp!, {r4, r5, r6, r7, r8, r9, pc}
 8002dd6:	1e42      	subs	r2, r0, #1
 8002dd8:	b2d2      	uxtb	r2, r2
 8002dda:	31e0      	adds	r1, #224	@ 0xe0
 8002ddc:	26e0      	movs	r6, #224	@ 0xe0
 8002dde:	fb16 1602 	smlabb	r6, r6, r2, r1
 8002de2:	2100      	movs	r1, #0
 8002de4:	aa02      	add	r2, sp, #8
 8002de6:	f8b3 406e 	ldrh.w	r4, [r3, #110]	@ 0x6e
 8002dea:	5254      	strh	r4, [r2, r1]
 8002dec:	f101 0e03 	add.w	lr, r1, #3
 8002df0:	1c8c      	adds	r4, r1, #2
 8002df2:	b2e4      	uxtb	r4, r4
 8002df4:	fa5f fe8e 	uxtb.w	lr, lr
 8002df8:	f893 8070 	ldrb.w	r8, [r3, #112]	@ 0x70
 8002dfc:	f893 5071 	ldrb.w	r5, [r3, #113]	@ 0x71
 8002e00:	f802 8004 	strb.w	r8, [r2, r4]
 8002e04:	1d0f      	adds	r7, r1, #4
 8002e06:	f101 0c05 	add.w	ip, r1, #5
 8002e0a:	f802 500e 	strb.w	r5, [r2, lr]
 8002e0e:	f893 4073 	ldrb.w	r4, [r3, #115]	@ 0x73
 8002e12:	f893 e072 	ldrb.w	lr, [r3, #114]	@ 0x72
 8002e16:	b2ff      	uxtb	r7, r7
 8002e18:	fa5f fc8c 	uxtb.w	ip, ip
 8002e1c:	33e0      	adds	r3, #224	@ 0xe0
 8002e1e:	3106      	adds	r1, #6
 8002e20:	42b3      	cmp	r3, r6
 8002e22:	f802 e007 	strb.w	lr, [r2, r7]
 8002e26:	b2c9      	uxtb	r1, r1
 8002e28:	f802 400c 	strb.w	r4, [r2, ip]
 8002e2c:	d1db      	bne.n	8002de6 <LTC681x_wrcomm+0x96>
 8002e2e:	a901      	add	r1, sp, #4
 8002e30:	f7ff f92e 	bl	8002090 <write_68>
 8002e34:	b043      	add	sp, #268	@ 0x10c
 8002e36:	e8bd 83f0 	ldmia.w	sp!, {r4, r5, r6, r7, r8, r9, pc}
 8002e3a:	bf00      	nop

08002e3c <LTC681x_stcomm>:
 8002e3c:	b570      	push	{r4, r5, r6, lr}
 8002e3e:	2100      	movs	r1, #0
 8002e40:	b082      	sub	sp, #8
 8002e42:	4608      	mov	r0, r1
 8002e44:	4b1a      	ldr	r3, [pc, #104]	@ (8002eb0 <LTC681x_stcomm+0x74>)
 8002e46:	9301      	str	r3, [sp, #4]
 8002e48:	f000 fe6e 	bl	8003b28 <BSP_SPI_SetStateCS>
 8002e4c:	2204      	movs	r2, #4
 8002e4e:	eb0d 0102 	add.w	r1, sp, r2
 8002e52:	2000      	movs	r0, #0
 8002e54:	f000 fcd2 	bl	80037fc <BSP_SPI_Write>
 8002e58:	b310      	cbz	r0, 8002ea0 <LTC681x_stcomm+0x64>
 8002e5a:	2001      	movs	r0, #1
 8002e5c:	f000 fcae 	bl	80037bc <BSP_SPI_SetClock>
 8002e60:	4e14      	ldr	r6, [pc, #80]	@ (8002eb4 <LTC681x_stcomm+0x78>)
 8002e62:	2409      	movs	r4, #9
 8002e64:	2500      	movs	r5, #0
 8002e66:	2201      	movs	r2, #1
 8002e68:	f10d 0103 	add.w	r1, sp, #3
 8002e6c:	2000      	movs	r0, #0
 8002e6e:	f88d 5003 	strb.w	r5, [sp, #3]
 8002e72:	f000 fd4f 	bl	8003914 <BSP_SPI_Read>
 8002e76:	b150      	cbz	r0, 8002e8e <LTC681x_stcomm+0x52>
 8002e78:	3c01      	subs	r4, #1
 8002e7a:	d1f4      	bne.n	8002e66 <LTC681x_stcomm+0x2a>
 8002e7c:	2000      	movs	r0, #0
 8002e7e:	f000 fc9d 	bl	80037bc <BSP_SPI_SetClock>
 8002e82:	2101      	movs	r1, #1
 8002e84:	2000      	movs	r0, #0
 8002e86:	f000 fe4f 	bl	8003b28 <BSP_SPI_SetStateCS>
 8002e8a:	b002      	add	sp, #8
 8002e8c:	bd70      	pop	{r4, r5, r6, pc}
 8002e8e:	8833      	ldrh	r3, [r6, #0]
 8002e90:	f443 7380 	orr.w	r3, r3, #256	@ 0x100
 8002e94:	8033      	strh	r3, [r6, #0]
 8002e96:	f004 ffeb 	bl	8007e70 <EnterFaultState>
 8002e9a:	3c01      	subs	r4, #1
 8002e9c:	d1e3      	bne.n	8002e66 <LTC681x_stcomm+0x2a>
 8002e9e:	e7ed      	b.n	8002e7c <LTC681x_stcomm+0x40>
 8002ea0:	4a04      	ldr	r2, [pc, #16]	@ (8002eb4 <LTC681x_stcomm+0x78>)
 8002ea2:	8813      	ldrh	r3, [r2, #0]
 8002ea4:	f443 7380 	orr.w	r3, r3, #256	@ 0x100
 8002ea8:	8013      	strh	r3, [r2, #0]
 8002eaa:	f004 ffe1 	bl	8007e70 <EnterFaultState>
 8002eae:	e7d4      	b.n	8002e5a <LTC681x_stcomm+0x1e>
 8002eb0:	e4b92307 	ldrt	r2, [r9], #775	@ 0x307
 8002eb4:	2000162c 	andcs	r1, r0, ip, lsr #12

08002eb8 <BSP_CAN_Init>:
 8002eb8:	e92d 47f0 	stmdb	sp!, {r4, r5, r6, r7, r8, r9, sl, lr}
 8002ebc:	461c      	mov	r4, r3
 8002ebe:	4b62      	ldr	r3, [pc, #392]	@ (8003048 <BSP_CAN_Init+0x190>)
 8002ec0:	6018      	str	r0, [r3, #0]
 8002ec2:	4b62      	ldr	r3, [pc, #392]	@ (800304c <BSP_CAN_Init+0x194>)
 8002ec4:	b0c6      	sub	sp, #280	@ 0x118
 8002ec6:	6019      	str	r1, [r3, #0]
 8002ec8:	460e      	mov	r6, r1
 8002eca:	4617      	mov	r7, r2
 8002ecc:	2100      	movs	r1, #0
 8002ece:	2280      	movs	r2, #128	@ 0x80
 8002ed0:	a806      	add	r0, sp, #24
 8002ed2:	9d4e      	ldr	r5, [sp, #312]	@ 0x138
 8002ed4:	f89d 813c 	ldrb.w	r8, [sp, #316]	@ 0x13c
 8002ed8:	f7fd fb0c 	bl	80004f4 <memset>
 8002edc:	2280      	movs	r2, #128	@ 0x80
 8002ede:	2100      	movs	r1, #0
 8002ee0:	a826      	add	r0, sp, #152	@ 0x98
 8002ee2:	f7fd fb07 	bl	80004f4 <memset>
 8002ee6:	2280      	movs	r2, #128	@ 0x80
 8002ee8:	a926      	add	r1, sp, #152	@ 0x98
 8002eea:	4859      	ldr	r0, [pc, #356]	@ (8003050 <BSP_CAN_Init+0x198>)
 8002eec:	f7fd fa68 	bl	80003c0 <memcpy>
 8002ef0:	2101      	movs	r1, #1
 8002ef2:	2002      	movs	r0, #2
 8002ef4:	f001 fe04 	bl	8004b00 <RCC_AHB1PeriphClockCmd>
 8002ef8:	2208      	movs	r2, #8
 8002efa:	4611      	mov	r1, r2
 8002efc:	4855      	ldr	r0, [pc, #340]	@ (8003054 <BSP_CAN_Init+0x19c>)
 8002efe:	f001 fd05 	bl	800490c <GPIO_PinAFConfig>
 8002f02:	4854      	ldr	r0, [pc, #336]	@ (8003054 <BSP_CAN_Init+0x19c>)
 8002f04:	2208      	movs	r2, #8
 8002f06:	2109      	movs	r1, #9
 8002f08:	f001 fd00 	bl	800490c <GPIO_PinAFConfig>
 8002f0c:	4a52      	ldr	r2, [pc, #328]	@ (8003058 <BSP_CAN_Init+0x1a0>)
 8002f0e:	4851      	ldr	r0, [pc, #324]	@ (8003054 <BSP_CAN_Init+0x19c>)
 8002f10:	f44f 7340 	mov.w	r3, #768	@ 0x300
 8002f14:	a901      	add	r1, sp, #4
 8002f16:	e9cd 3201 	strd	r3, r2, [sp, #4]
 8002f1a:	f001 fca9 	bl	8004870 <GPIO_Init>
 8002f1e:	2101      	movs	r1, #1
 8002f20:	f04f 7000 	mov.w	r0, #33554432	@ 0x2000000
 8002f24:	f001 fdf8 	bl	8004b18 <RCC_APB1PeriphClockCmd>
 8002f28:	f240 3302 	movw	r3, #770	@ 0x302
 8002f2c:	f8ad 3010 	strh.w	r3, [sp, #16]
 8002f30:	f44f 7380 	mov.w	r3, #256	@ 0x100
 8002f34:	f88d 400e 	strb.w	r4, [sp, #14]
 8002f38:	f8ad 3016 	strh.w	r3, [sp, #22]
 8002f3c:	2400      	movs	r4, #0
 8002f3e:	2314      	movs	r3, #20
 8002f40:	4846      	ldr	r0, [pc, #280]	@ (800305c <BSP_CAN_Init+0x1a4>)
 8002f42:	f88d 400f 	strb.w	r4, [sp, #15]
 8002f46:	a903      	add	r1, sp, #12
 8002f48:	f8ad 4012 	strh.w	r4, [sp, #18]
 8002f4c:	f8ad 4014 	strh.w	r4, [sp, #20]
 8002f50:	f8ad 300c 	strh.w	r3, [sp, #12]
 8002f54:	f001 faa4 	bl	80044a0 <CAN_Init>
 8002f58:	2d00      	cmp	r5, #0
 8002f5a:	d03e      	beq.n	8002fda <BSP_CAN_Init+0x122>
 8002f5c:	f1b8 0f70 	cmp.w	r8, #112	@ 0x70
 8002f60:	d83b      	bhi.n	8002fda <BSP_CAN_Init+0x122>
 8002f62:	ab06      	add	r3, sp, #24
 8002f64:	9326      	str	r3, [sp, #152]	@ 0x98
 8002f66:	f04f 2301 	mov.w	r3, #16777472	@ 0x1000100
 8002f6a:	f8cd 3022 	str.w	r3, [sp, #34]	@ 0x22
 8002f6e:	f10d 031a 	add.w	r3, sp, #26
 8002f72:	9327      	str	r3, [sp, #156]	@ 0x9c
 8002f74:	f108 0903 	add.w	r9, r8, #3
 8002f78:	ab07      	add	r3, sp, #28
 8002f7a:	9328      	str	r3, [sp, #160]	@ 0xa0
 8002f7c:	f019 09fc 	ands.w	r9, r9, #252	@ 0xfc
 8002f80:	f10d 031e 	add.w	r3, sp, #30
 8002f84:	f8ad 4020 	strh.w	r4, [sp, #32]
 8002f88:	9329      	str	r3, [sp, #164]	@ 0xa4
 8002f8a:	d032      	beq.n	8002ff2 <BSP_CAN_Init+0x13a>
 8002f8c:	f8df a0cc 	ldr.w	sl, [pc, #204]	@ 800305c <BSP_CAN_Init+0x1a4>
 8002f90:	a906      	add	r1, sp, #24
 8002f92:	4622      	mov	r2, r4
 8002f94:	e00c      	b.n	8002fb0 <BSP_CAN_Init+0xf8>
 8002f96:	3401      	adds	r4, #1
 8002f98:	b2e4      	uxtb	r4, r4
 8002f9a:	f004 0303 	and.w	r3, r4, #3
 8002f9e:	aa46      	add	r2, sp, #280	@ 0x118
 8002fa0:	45a1      	cmp	r9, r4
 8002fa2:	eb02 0383 	add.w	r3, r2, r3, lsl #2
 8002fa6:	d024      	beq.n	8002ff2 <BSP_CAN_Init+0x13a>
 8002fa8:	f853 1c80 	ldr.w	r1, [r3, #-128]
 8002fac:	f004 0203 	and.w	r2, r4, #3
 8002fb0:	45a0      	cmp	r8, r4
 8002fb2:	bf83      	ittte	hi
 8002fb4:	882b      	ldrhhi	r3, [r5, #0]
 8002fb6:	015b      	lslhi	r3, r3, #5
 8002fb8:	b29b      	uxthhi	r3, r3
 8002fba:	2300      	movls	r3, #0
 8002fbc:	2a03      	cmp	r2, #3
 8002fbe:	800b      	strh	r3, [r1, #0]
 8002fc0:	f105 0502 	add.w	r5, r5, #2
 8002fc4:	d1e7      	bne.n	8002f96 <BSP_CAN_Init+0xde>
 8002fc6:	a906      	add	r1, sp, #24
 8002fc8:	4650      	mov	r0, sl
 8002fca:	f001 fadd 	bl	8004588 <CAN_FilterInit>
 8002fce:	f89d 3022 	ldrb.w	r3, [sp, #34]	@ 0x22
 8002fd2:	3301      	adds	r3, #1
 8002fd4:	f88d 3022 	strb.w	r3, [sp, #34]	@ 0x22
 8002fd8:	e7dd      	b.n	8002f96 <BSP_CAN_Init+0xde>
 8002fda:	2300      	movs	r3, #0
 8002fdc:	e9cd 3306 	strd	r3, r3, [sp, #24]
 8002fe0:	f8ad 3020 	strh.w	r3, [sp, #32]
 8002fe4:	481d      	ldr	r0, [pc, #116]	@ (800305c <BSP_CAN_Init+0x1a4>)
 8002fe6:	4b1e      	ldr	r3, [pc, #120]	@ (8003060 <BSP_CAN_Init+0x1a8>)
 8002fe8:	f8cd 3022 	str.w	r3, [sp, #34]	@ 0x22
 8002fec:	a906      	add	r1, sp, #24
 8002fee:	f001 facb 	bl	8004588 <CAN_FilterInit>
 8002ff2:	481c      	ldr	r0, [pc, #112]	@ (8003064 <BSP_CAN_Init+0x1ac>)
 8002ff4:	4b1c      	ldr	r3, [pc, #112]	@ (8003068 <BSP_CAN_Init+0x1b0>)
 8002ff6:	2100      	movs	r1, #0
 8002ff8:	2401      	movs	r4, #1
 8002ffa:	8101      	strh	r1, [r0, #8]
 8002ffc:	6044      	str	r4, [r0, #4]
 8002ffe:	7284      	strb	r4, [r0, #10]
 8003000:	7219      	strb	r1, [r3, #8]
 8003002:	7299      	strb	r1, [r3, #10]
 8003004:	74d9      	strb	r1, [r3, #19]
 8003006:	2000      	movs	r0, #0
 8003008:	2100      	movs	r1, #0
 800300a:	e9c3 0100 	strd	r0, r1, [r3]
 800300e:	b117      	cbz	r7, 8003016 <BSP_CAN_Init+0x15e>
 8003010:	b046      	add	sp, #280	@ 0x118
 8003012:	e8bd 87f0 	ldmia.w	sp!, {r4, r5, r6, r7, r8, r9, sl, pc}
 8003016:	4811      	ldr	r0, [pc, #68]	@ (800305c <BSP_CAN_Init+0x1a4>)
 8003018:	4622      	mov	r2, r4
 800301a:	2102      	movs	r1, #2
 800301c:	f001 fbd6 	bl	80047cc <CAN_ITConfig>
 8003020:	4b12      	ldr	r3, [pc, #72]	@ (800306c <BSP_CAN_Init+0x1b4>)
 8003022:	9326      	str	r3, [sp, #152]	@ 0x98
 8003024:	a826      	add	r0, sp, #152	@ 0x98
 8003026:	f001 f9d3 	bl	80043d0 <NVIC_Init>
 800302a:	2e00      	cmp	r6, #0
 800302c:	d0f0      	beq.n	8003010 <BSP_CAN_Init+0x158>
 800302e:	4622      	mov	r2, r4
 8003030:	4621      	mov	r1, r4
 8003032:	480a      	ldr	r0, [pc, #40]	@ (800305c <BSP_CAN_Init+0x1a4>)
 8003034:	f001 fbca 	bl	80047cc <CAN_ITConfig>
 8003038:	4b0d      	ldr	r3, [pc, #52]	@ (8003070 <BSP_CAN_Init+0x1b8>)
 800303a:	9326      	str	r3, [sp, #152]	@ 0x98
 800303c:	a826      	add	r0, sp, #152	@ 0x98
 800303e:	f001 f9c7 	bl	80043d0 <NVIC_Init>
 8003042:	b046      	add	sp, #280	@ 0x118
 8003044:	e8bd 87f0 	ldmia.w	sp!, {r4, r5, r6, r7, r8, r9, sl, pc}
 8003048:	20003ae0 	andcs	r3, r0, r0, ror #21
 800304c:	20003b7c 	andcs	r3, r0, ip, ror fp
 8003050:	20003afc 	strdcs	r3, [r0], -ip
 8003054:	40020400 	andmi	r0, r2, r0, lsl #8
 8003058:	01000202 	tsteq	r0, r2, lsl #4
 800305c:	40006400 	andmi	r6, r0, r0, lsl #8
 8003060:	01010000 	mrseq	r0, (UNDEF: 1)
 8003064:	20003b80 	andcs	r3, r0, r0, lsl #23
 8003068:	20003ae8 	andcs	r3, r0, r8, ror #21
 800306c:	01010114 	tsteq	r1, r4, lsl r1
 8003070:	01000113 	tsteq	r0, r3, lsl r1

08003074 <BSP_CAN_DeInit>:
 8003074:	4801      	ldr	r0, [pc, #4]	@ (800307c <BSP_CAN_DeInit+0x8>)
 8003076:	f001 b9e3 	b.w	8004440 <CAN_DeInit>
 800307a:	bf00      	nop
 800307c:	40006400 	andmi	r6, r0, r0, lsl #8

08003080 <BSP_CAN_Write>:
 8003080:	2a08      	cmp	r2, #8
 8003082:	d82a      	bhi.n	80030da <BSP_CAN_Write+0x5a>
 8003084:	b508      	push	{r3, lr}
 8003086:	4b16      	ldr	r3, [pc, #88]	@ (80030e0 <BSP_CAN_Write+0x60>)
 8003088:	6018      	str	r0, [r3, #0]
 800308a:	729a      	strb	r2, [r3, #10]
 800308c:	b1ea      	cbz	r2, 80030ca <BSP_CAN_Write+0x4a>
 800308e:	7808      	ldrb	r0, [r1, #0]
 8003090:	72d8      	strb	r0, [r3, #11]
 8003092:	2a01      	cmp	r2, #1
 8003094:	d019      	beq.n	80030ca <BSP_CAN_Write+0x4a>
 8003096:	7848      	ldrb	r0, [r1, #1]
 8003098:	7318      	strb	r0, [r3, #12]
 800309a:	2a02      	cmp	r2, #2
 800309c:	d015      	beq.n	80030ca <BSP_CAN_Write+0x4a>
 800309e:	7888      	ldrb	r0, [r1, #2]
 80030a0:	7358      	strb	r0, [r3, #13]
 80030a2:	2a03      	cmp	r2, #3
 80030a4:	d011      	beq.n	80030ca <BSP_CAN_Write+0x4a>
 80030a6:	78c8      	ldrb	r0, [r1, #3]
 80030a8:	7398      	strb	r0, [r3, #14]
 80030aa:	2a04      	cmp	r2, #4
 80030ac:	d00d      	beq.n	80030ca <BSP_CAN_Write+0x4a>
 80030ae:	7908      	ldrb	r0, [r1, #4]
 80030b0:	73d8      	strb	r0, [r3, #15]
 80030b2:	2a05      	cmp	r2, #5
 80030b4:	d009      	beq.n	80030ca <BSP_CAN_Write+0x4a>
 80030b6:	7948      	ldrb	r0, [r1, #5]
 80030b8:	7418      	strb	r0, [r3, #16]
 80030ba:	2a06      	cmp	r2, #6
 80030bc:	d005      	beq.n	80030ca <BSP_CAN_Write+0x4a>
 80030be:	7988      	ldrb	r0, [r1, #6]
 80030c0:	7458      	strb	r0, [r3, #17]
 80030c2:	2a08      	cmp	r2, #8
 80030c4:	bf04      	itt	eq
 80030c6:	79ca      	ldrbeq	r2, [r1, #7]
 80030c8:	749a      	strbeq	r2, [r3, #18]
 80030ca:	4905      	ldr	r1, [pc, #20]	@ (80030e0 <BSP_CAN_Write+0x60>)
 80030cc:	4805      	ldr	r0, [pc, #20]	@ (80030e4 <BSP_CAN_Write+0x64>)
 80030ce:	f001 facb 	bl	8004668 <CAN_Transmit>
 80030d2:	3804      	subs	r0, #4
 80030d4:	bf18      	it	ne
 80030d6:	2001      	movne	r0, #1
 80030d8:	bd08      	pop	{r3, pc}
 80030da:	2000      	movs	r0, #0
 80030dc:	4770      	bx	lr
 80030de:	bf00      	nop
 80030e0:	20003b80 	andcs	r3, r0, r0, lsl #23
 80030e4:	40006400 	andmi	r6, r0, r0, lsl #8

080030e8 <BSP_CAN_Read>:
 80030e8:	b530      	push	{r4, r5, lr}
 80030ea:	4c17      	ldr	r4, [pc, #92]	@ (8003148 <BSP_CAN_Read+0x60>)
 80030ec:	e9d4 231e 	ldrd	r2, r3, [r4, #120]	@ 0x78
 80030f0:	429a      	cmp	r2, r3
 80030f2:	b085      	sub	sp, #20
 80030f4:	d023      	beq.n	800313e <BSP_CAN_Read+0x56>
 80030f6:	468e      	mov	lr, r1
 80030f8:	4914      	ldr	r1, [pc, #80]	@ (800314c <BSP_CAN_Read+0x64>)
 80030fa:	eb03 0c43 	add.w	ip, r3, r3, lsl #1
 80030fe:	3301      	adds	r3, #1
 8003100:	fb81 2103 	smull	r2, r1, r1, r3
 8003104:	17da      	asrs	r2, r3, #31
 8003106:	ebc2 02a1 	rsb	r2, r2, r1, asr #2
 800310a:	eb04 0c8c 	add.w	ip, r4, ip, lsl #2
 800310e:	eb02 0282 	add.w	r2, r2, r2, lsl #2
 8003112:	4605      	mov	r5, r0
 8003114:	eba3 0342 	sub.w	r3, r3, r2, lsl #1
 8003118:	e89c 0007 	ldmia.w	ip, {r0, r1, r2}
 800311c:	f10d 0c10 	add.w	ip, sp, #16
 8003120:	e90c 0007 	stmdb	ip, {r0, r1, r2}
 8003124:	67e3      	str	r3, [r4, #124]	@ 0x7c
 8003126:	ab02      	add	r3, sp, #8
 8003128:	4602      	mov	r2, r0
 800312a:	cb03      	ldmia	r3!, {r0, r1}
 800312c:	2401      	movs	r4, #1
 800312e:	f8ce 0000 	str.w	r0, [lr]
 8003132:	4620      	mov	r0, r4
 8003134:	f8ce 1004 	str.w	r1, [lr, #4]
 8003138:	602a      	str	r2, [r5, #0]
 800313a:	b005      	add	sp, #20
 800313c:	bd30      	pop	{r4, r5, pc}
 800313e:	2400      	movs	r4, #0
 8003140:	4620      	mov	r0, r4
 8003142:	b005      	add	sp, #20
 8003144:	bd30      	pop	{r4, r5, pc}
 8003146:	bf00      	nop
 8003148:	20003afc 	strdcs	r3, [r0], -ip
 800314c:	66666667 	strbtvs	r6, [r6], -r7, ror #12

08003150 <CAN1_RX0_IRQHandler>:
 8003150:	b5f0      	push	{r4, r5, r6, r7, lr}
 8003152:	b087      	sub	sp, #28
 8003154:	f7fd f888 	bl	8000268 <CPU_SR_Save>
 8003158:	4604      	mov	r4, r0
 800315a:	f004 fc6d 	bl	8007a38 <CPU_IntDisMeasStart>
 800315e:	f002 f8af 	bl	80052c0 <OSIntEnter>
 8003162:	f004 fc83 	bl	8007a6c <CPU_IntDisMeasStop>
 8003166:	4620      	mov	r0, r4
 8003168:	4f22      	ldr	r7, [pc, #136]	@ (80031f4 <CAN1_RX0_IRQHandler+0xa4>)
 800316a:	4d23      	ldr	r5, [pc, #140]	@ (80031f8 <CAN1_RX0_IRQHandler+0xa8>)
 800316c:	f7fd f880 	bl	8000270 <CPU_SR_Restore>
 8003170:	f107 060b 	add.w	r6, r7, #11
 8003174:	2100      	movs	r1, #0
 8003176:	4628      	mov	r0, r5
 8003178:	f001 fb1c 	bl	80047b4 <CAN_MessagePending>
 800317c:	4603      	mov	r3, r0
 800317e:	4a1d      	ldr	r2, [pc, #116]	@ (80031f4 <CAN1_RX0_IRQHandler+0xa4>)
 8003180:	2100      	movs	r1, #0
 8003182:	4628      	mov	r0, r5
 8003184:	b383      	cbz	r3, 80031e8 <CAN1_RX0_IRQHandler+0x98>
 8003186:	f001 fac7 	bl	8004718 <CAN_Receive>
 800318a:	6830      	ldr	r0, [r6, #0]
 800318c:	6871      	ldr	r1, [r6, #4]
 800318e:	683a      	ldr	r2, [r7, #0]
 8003190:	9200      	str	r2, [sp, #0]
 8003192:	ab01      	add	r3, sp, #4
 8003194:	c303      	stmia	r3!, {r0, r1}
 8003196:	466a      	mov	r2, sp
 8003198:	ca07      	ldmia	r2, {r0, r1, r2}
 800319a:	f8df e060 	ldr.w	lr, [pc, #96]	@ 80031fc <CAN1_RX0_IRQHandler+0xac>
 800319e:	4b18      	ldr	r3, [pc, #96]	@ (8003200 <CAN1_RX0_IRQHandler+0xb0>)
 80031a0:	f8de 4078 	ldr.w	r4, [lr, #120]	@ 0x78
 80031a4:	f10d 0c0c 	add.w	ip, sp, #12
 80031a8:	e88c 0007 	stmia.w	ip, {r0, r1, r2}
 80031ac:	1c61      	adds	r1, r4, #1
 80031ae:	fb83 3201 	smull	r3, r2, r3, r1
 80031b2:	17cb      	asrs	r3, r1, #31
 80031b4:	ebc3 03a2 	rsb	r3, r3, r2, asr #2
 80031b8:	eb03 0383 	add.w	r3, r3, r3, lsl #2
 80031bc:	f8de 207c 	ldr.w	r2, [lr, #124]	@ 0x7c
 80031c0:	eba1 0343 	sub.w	r3, r1, r3, lsl #1
 80031c4:	eb04 0444 	add.w	r4, r4, r4, lsl #1
 80031c8:	4293      	cmp	r3, r2
 80031ca:	eb0e 0484 	add.w	r4, lr, r4, lsl #2
 80031ce:	d00b      	beq.n	80031e8 <CAN1_RX0_IRQHandler+0x98>
 80031d0:	e89c 0007 	ldmia.w	ip, {r0, r1, r2}
 80031d4:	f8ce 3078 	str.w	r3, [lr, #120]	@ 0x78
 80031d8:	4b0a      	ldr	r3, [pc, #40]	@ (8003204 <CAN1_RX0_IRQHandler+0xb4>)
 80031da:	681b      	ldr	r3, [r3, #0]
 80031dc:	e884 0007 	stmia.w	r4, {r0, r1, r2}
 80031e0:	2b00      	cmp	r3, #0
 80031e2:	d0c7      	beq.n	8003174 <CAN1_RX0_IRQHandler+0x24>
 80031e4:	4798      	blx	r3
 80031e6:	e7c5      	b.n	8003174 <CAN1_RX0_IRQHandler+0x24>
 80031e8:	b007      	add	sp, #28
 80031ea:	e8bd 40f0 	ldmia.w	sp!, {r4, r5, r6, r7, lr}
 80031ee:	f002 b877 	b.w	80052e0 <OSIntExit>
 80031f2:	bf00      	nop
 80031f4:	20003ae8 	andcs	r3, r0, r8, ror #21
 80031f8:	40006400 	andmi	r6, r0, r0, lsl #8
 80031fc:	20003afc 	strdcs	r3, [r0], -ip
 8003200:	66666667 	strbtvs	r6, [r6], -r7, ror #12
 8003204:	20003ae0 	andcs	r3, r0, r0, ror #21

08003208 <CAN1_TX_IRQHandler>:
 8003208:	b510      	push	{r4, lr}
 800320a:	f7fd f82d 	bl	8000268 <CPU_SR_Save>
 800320e:	4604      	mov	r4, r0
 8003210:	f004 fc12 	bl	8007a38 <CPU_IntDisMeasStart>
 8003214:	f002 f854 	bl	80052c0 <OSIntEnter>
 8003218:	f004 fc28 	bl	8007a6c <CPU_IntDisMeasStop>
 800321c:	4620      	mov	r0, r4
 800321e:	f7fd f827 	bl	8000270 <CPU_SR_Restore>
 8003222:	4905      	ldr	r1, [pc, #20]	@ (8003238 <CAN1_TX_IRQHandler+0x30>)
 8003224:	4805      	ldr	r0, [pc, #20]	@ (800323c <CAN1_TX_IRQHandler+0x34>)
 8003226:	f001 fadb 	bl	80047e0 <CAN_ClearFlag>
 800322a:	4b05      	ldr	r3, [pc, #20]	@ (8003240 <CAN1_TX_IRQHandler+0x38>)
 800322c:	681b      	ldr	r3, [r3, #0]
 800322e:	4798      	blx	r3
 8003230:	e8bd 4010 	ldmia.w	sp!, {r4, lr}
 8003234:	f002 b854 	b.w	80052e0 <OSIntExit>
 8003238:	38010101 	stmdacc	r1, {r0, r8}
 800323c:	40006400 	andmi	r6, r0, r0, lsl #8
 8003240:	20003b7c 	andcs	r3, r0, ip, ror fp

08003244 <BSP_Lights_Init>:
 8003244:	b500      	push	{lr}
 8003246:	2101      	movs	r1, #1
 8003248:	b083      	sub	sp, #12
 800324a:	2004      	movs	r0, #4
 800324c:	f001 fc58 	bl	8004b00 <RCC_AHB1PeriphClockCmd>
 8003250:	221f      	movs	r2, #31
 8003252:	f240 2301 	movw	r3, #513	@ 0x201
 8003256:	4669      	mov	r1, sp
 8003258:	480e      	ldr	r0, [pc, #56]	@ (8003294 <BSP_Lights_Init+0x50>)
 800325a:	e9cd 2300 	strd	r2, r3, [sp]
 800325e:	f001 fb07 	bl	8004870 <GPIO_Init>
 8003262:	2101      	movs	r1, #1
 8003264:	4608      	mov	r0, r1
 8003266:	f001 fc4b 	bl	8004b00 <RCC_AHB1PeriphClockCmd>
 800326a:	23f0      	movs	r3, #240	@ 0xf0
 800326c:	4669      	mov	r1, sp
 800326e:	480a      	ldr	r0, [pc, #40]	@ (8003298 <BSP_Lights_Init+0x54>)
 8003270:	9300      	str	r3, [sp, #0]
 8003272:	f001 fafd 	bl	8004870 <GPIO_Init>
 8003276:	2101      	movs	r1, #1
 8003278:	2002      	movs	r0, #2
 800327a:	f001 fc41 	bl	8004b00 <RCC_AHB1PeriphClockCmd>
 800327e:	f44f 5380 	mov.w	r3, #4096	@ 0x1000
 8003282:	4806      	ldr	r0, [pc, #24]	@ (800329c <BSP_Lights_Init+0x58>)
 8003284:	9300      	str	r3, [sp, #0]
 8003286:	4669      	mov	r1, sp
 8003288:	f001 faf2 	bl	8004870 <GPIO_Init>
 800328c:	b003      	add	sp, #12
 800328e:	f85d fb04 	ldr.w	pc, [sp], #4
 8003292:	bf00      	nop
 8003294:	40020800 	andmi	r0, r2, r0, lsl #16
 8003298:	40020000 	andmi	r0, r2, r0
 800329c:	40020400 	andmi	r0, r2, r0, lsl #8

080032a0 <BSP_Light_Toggle>:
 80032a0:	4a04      	ldr	r2, [pc, #16]	@ (80032b4 <BSP_Light_Toggle+0x14>)
 80032a2:	4b05      	ldr	r3, [pc, #20]	@ (80032b8 <BSP_Light_Toggle+0x18>)
 80032a4:	f852 2020 	ldr.w	r2, [r2, r0, lsl #2]
 80032a8:	f853 1020 	ldr.w	r1, [r3, r0, lsl #2]
 80032ac:	6953      	ldr	r3, [r2, #20]
 80032ae:	404b      	eors	r3, r1
 80032b0:	6153      	str	r3, [r2, #20]
 80032b2:	4770      	bx	lr
 80032b4:	080095fc 	stmdaeq	r0, {r2, r3, r4, r5, r6, r7, r8, sl, ip, pc}
 80032b8:	08009624 	stmdaeq	r0, {r2, r5, r9, sl, ip, pc}

080032bc <BSP_Light_On>:
 80032bc:	4a04      	ldr	r2, [pc, #16]	@ (80032d0 <BSP_Light_On+0x14>)
 80032be:	4b05      	ldr	r3, [pc, #20]	@ (80032d4 <BSP_Light_On+0x18>)
 80032c0:	f852 2020 	ldr.w	r2, [r2, r0, lsl #2]
 80032c4:	f853 1020 	ldr.w	r1, [r3, r0, lsl #2]
 80032c8:	6953      	ldr	r3, [r2, #20]
 80032ca:	430b      	orrs	r3, r1
 80032cc:	6153      	str	r3, [r2, #20]
 80032ce:	4770      	bx	lr
 80032d0:	080095fc 	stmdaeq	r0, {r2, r3, r4, r5, r6, r7, r8, sl, ip, pc}
 80032d4:	08009624 	stmdaeq	r0, {r2, r5, r9, sl, ip, pc}

080032d8 <BSP_Light_Off>:
 80032d8:	4a05      	ldr	r2, [pc, #20]	@ (80032f0 <BSP_Light_Off+0x18>)
 80032da:	4b06      	ldr	r3, [pc, #24]	@ (80032f4 <BSP_Light_Off+0x1c>)
 80032dc:	f852 2020 	ldr.w	r2, [r2, r0, lsl #2]
 80032e0:	f853 1020 	ldr.w	r1, [r3, r0, lsl #2]
 80032e4:	6953      	ldr	r3, [r2, #20]
 80032e6:	ea23 0301 	bic.w	r3, r3, r1
 80032ea:	6153      	str	r3, [r2, #20]
 80032ec:	4770      	bx	lr
 80032ee:	bf00      	nop
 80032f0:	080095fc 	stmdaeq	r0, {r2, r3, r4, r5, r6, r7, r8, sl, ip, pc}
 80032f4:	08009624 	stmdaeq	r0, {r2, r5, r9, sl, ip, pc}

080032f8 <BSP_PLL_Init>:
 80032f8:	b510      	push	{r4, lr}
 80032fa:	2001      	movs	r0, #1
 80032fc:	b082      	sub	sp, #8
 80032fe:	f001 fb3b 	bl	8004978 <RCC_HSEConfig>
 8003302:	f001 fb41 	bl	8004988 <RCC_WaitForHSEStartUp>
 8003306:	2801      	cmp	r0, #1
 8003308:	d000      	beq.n	800330c <BSP_PLL_Init+0x14>
 800330a:	e7fe      	b.n	800330a <BSP_PLL_Init+0x12>
 800330c:	4604      	mov	r4, r0
 800330e:	2003      	movs	r0, #3
 8003310:	f001 fa7e 	bl	8004810 <FLASH_SetLatency>
 8003314:	4620      	mov	r0, r4
 8003316:	f001 fa81 	bl	800481c <FLASH_PrefetchBufferCmd>
 800331a:	4620      	mov	r0, r4
 800331c:	f001 fa8c 	bl	8004838 <FLASH_InstructionCacheCmd>
 8003320:	4620      	mov	r0, r4
 8003322:	f001 fa97 	bl	8004854 <FLASH_DataCacheCmd>
 8003326:	2000      	movs	r0, #0
 8003328:	f001 fb6a 	bl	8004a00 <RCC_HCLKConfig>
 800332c:	f44f 5080 	mov.w	r0, #4096	@ 0x1000
 8003330:	f001 fb7a 	bl	8004a28 <RCC_PCLK2Config>
 8003334:	f44f 50a0 	mov.w	r0, #5120	@ 0x1400
 8003338:	f001 fb6c 	bl	8004a14 <RCC_PCLK1Config>
 800333c:	2205      	movs	r2, #5
 800333e:	2302      	movs	r3, #2
 8003340:	e9cd 2300 	strd	r2, r3, [sp]
 8003344:	f44f 0080 	mov.w	r0, #4194304	@ 0x400000
 8003348:	22a0      	movs	r2, #160	@ 0xa0
 800334a:	2108      	movs	r1, #8
 800334c:	f001 fb34 	bl	80049b8 <RCC_PLLConfig>
 8003350:	4620      	mov	r0, r4
 8003352:	f001 fb45 	bl	80049e0 <RCC_PLLCmd>
 8003356:	2039      	movs	r0, #57	@ 0x39
 8003358:	f001 fc02 	bl	8004b60 <RCC_GetFlagStatus>
 800335c:	2800      	cmp	r0, #0
 800335e:	d0fa      	beq.n	8003356 <BSP_PLL_Init+0x5e>
 8003360:	2002      	movs	r0, #2
 8003362:	f001 fb43 	bl	80049ec <RCC_SYSCLKConfig>
 8003366:	b002      	add	sp, #8
 8003368:	e8bd 4010 	ldmia.w	sp!, {r4, lr}
 800336c:	f000 bff8 	b.w	8004360 <SystemCoreClockUpdate>

08003370 <BSP_PLL_DelayMs>:
 8003370:	b410      	push	{r4}
 8003372:	b083      	sub	sp, #12
 8003374:	2100      	movs	r1, #0
 8003376:	4b0e      	ldr	r3, [pc, #56]	@ (80033b0 <BSP_PLL_DelayMs+0x40>)
 8003378:	9100      	str	r1, [sp, #0]
 800337a:	9c00      	ldr	r4, [sp, #0]
 800337c:	681b      	ldr	r3, [r3, #0]
 800337e:	4a0d      	ldr	r2, [pc, #52]	@ (80033b4 <BSP_PLL_DelayMs+0x44>)
 8003380:	42a0      	cmp	r0, r4
 8003382:	fba2 2303 	umull	r2, r3, r2, r3
 8003386:	d910      	bls.n	80033aa <BSP_PLL_DelayMs+0x3a>
 8003388:	0b5a      	lsrs	r2, r3, #13
 800338a:	9101      	str	r1, [sp, #4]
 800338c:	9b01      	ldr	r3, [sp, #4]
 800338e:	429a      	cmp	r2, r3
 8003390:	d905      	bls.n	800339e <BSP_PLL_DelayMs+0x2e>
 8003392:	9b01      	ldr	r3, [sp, #4]
 8003394:	3301      	adds	r3, #1
 8003396:	9301      	str	r3, [sp, #4]
 8003398:	9b01      	ldr	r3, [sp, #4]
 800339a:	4293      	cmp	r3, r2
 800339c:	d3f9      	bcc.n	8003392 <BSP_PLL_DelayMs+0x22>
 800339e:	9b00      	ldr	r3, [sp, #0]
 80033a0:	3301      	adds	r3, #1
 80033a2:	9300      	str	r3, [sp, #0]
 80033a4:	9b00      	ldr	r3, [sp, #0]
 80033a6:	4283      	cmp	r3, r0
 80033a8:	d3ef      	bcc.n	800338a <BSP_PLL_DelayMs+0x1a>
 80033aa:	b003      	add	sp, #12
 80033ac:	bc10      	pop	{r4}
 80033ae:	4770      	bx	lr
 80033b0:	200000c4 	andcs	r0, r0, r4, asr #1
 80033b4:	d1b71759 			@ <UNDEFINED> instruction: 0xd1b71759

080033b8 <BSP_PWM_Init>:
 80033b8:	e92d 47f0 	stmdb	sp!, {r4, r5, r6, r7, r8, r9, sl, lr}
 80033bc:	2101      	movs	r1, #1
 80033be:	b082      	sub	sp, #8
 80033c0:	2002      	movs	r0, #2
 80033c2:	f001 fba9 	bl	8004b18 <RCC_APB1PeriphClockCmd>
 80033c6:	2101      	movs	r1, #1
 80033c8:	2002      	movs	r0, #2
 80033ca:	f001 fbb1 	bl	8004b30 <RCC_APB2PeriphClockCmd>
 80033ce:	2101      	movs	r1, #1
 80033d0:	2040      	movs	r0, #64	@ 0x40
 80033d2:	f001 fba1 	bl	8004b18 <RCC_APB1PeriphClockCmd>
 80033d6:	2101      	movs	r1, #1
 80033d8:	4608      	mov	r0, r1
 80033da:	f001 fb91 	bl	8004b00 <RCC_AHB1PeriphClockCmd>
 80033de:	f8df 9140 	ldr.w	r9, [pc, #320]	@ 8003520 <BSP_PWM_Init+0x168>
 80033e2:	4d50      	ldr	r5, [pc, #320]	@ (8003524 <BSP_PWM_Init+0x16c>)
 80033e4:	4c50      	ldr	r4, [pc, #320]	@ (8003528 <BSP_PWM_Init+0x170>)
 80033e6:	f8df 8144 	ldr.w	r8, [pc, #324]	@ 800352c <BSP_PWM_Init+0x174>
 80033ea:	f8df a144 	ldr.w	sl, [pc, #324]	@ 8003530 <BSP_PWM_Init+0x178>
 80033ee:	4e51      	ldr	r6, [pc, #324]	@ (8003534 <BSP_PWM_Init+0x17c>)
 80033f0:	2101      	movs	r1, #1
 80033f2:	2002      	movs	r0, #2
 80033f4:	f001 fb84 	bl	8004b00 <RCC_AHB1PeriphClockCmd>
 80033f8:	2101      	movs	r1, #1
 80033fa:	2004      	movs	r0, #4
 80033fc:	f001 fb80 	bl	8004b00 <RCC_AHB1PeriphClockCmd>
 8003400:	4648      	mov	r0, r9
 8003402:	2202      	movs	r2, #2
 8003404:	2100      	movs	r1, #0
 8003406:	f001 fa81 	bl	800490c <GPIO_PinAFConfig>
 800340a:	4628      	mov	r0, r5
 800340c:	2203      	movs	r2, #3
 800340e:	2106      	movs	r1, #6
 8003410:	f001 fa7c 	bl	800490c <GPIO_PinAFConfig>
 8003414:	4628      	mov	r0, r5
 8003416:	2203      	movs	r2, #3
 8003418:	2107      	movs	r1, #7
 800341a:	f001 fa77 	bl	800490c <GPIO_PinAFConfig>
 800341e:	4648      	mov	r0, r9
 8003420:	2209      	movs	r2, #9
 8003422:	210e      	movs	r1, #14
 8003424:	f001 fa72 	bl	800490c <GPIO_PinAFConfig>
 8003428:	4648      	mov	r0, r9
 800342a:	2209      	movs	r2, #9
 800342c:	210f      	movs	r1, #15
 800342e:	f001 fa6d 	bl	800490c <GPIO_PinAFConfig>
 8003432:	4a41      	ldr	r2, [pc, #260]	@ (8003538 <BSP_PWM_Init+0x180>)
 8003434:	23c0      	movs	r3, #192	@ 0xc0
 8003436:	e9c4 3200 	strd	r3, r2, [r4]
 800343a:	4621      	mov	r1, r4
 800343c:	4628      	mov	r0, r5
 800343e:	f001 fa17 	bl	8004870 <GPIO_Init>
 8003442:	f24c 0301 	movw	r3, #49153	@ 0xc001
 8003446:	4621      	mov	r1, r4
 8003448:	4648      	mov	r0, r9
 800344a:	2700      	movs	r7, #0
 800344c:	6023      	str	r3, [r4, #0]
 800344e:	f001 fa0f 	bl	8004870 <GPIO_Init>
 8003452:	f44f 637a 	mov.w	r3, #4000	@ 0xfa0
 8003456:	4641      	mov	r1, r8
 8003458:	4650      	mov	r0, sl
 800345a:	f5a5 35f8 	sub.w	r5, r5, #126976	@ 0x1f000
 800345e:	f8c8 3004 	str.w	r3, [r8, #4]
 8003462:	f8a8 7008 	strh.w	r7, [r8, #8]
 8003466:	f8c8 7000 	str.w	r7, [r8]
 800346a:	f888 700a 	strb.w	r7, [r8, #10]
 800346e:	f001 fbf7 	bl	8004c60 <TIM_TimeBaseInit>
 8003472:	4641      	mov	r1, r8
 8003474:	4630      	mov	r0, r6
 8003476:	4c31      	ldr	r4, [pc, #196]	@ (800353c <BSP_PWM_Init+0x184>)
 8003478:	f001 fbf2 	bl	8004c60 <TIM_TimeBaseInit>
 800347c:	4641      	mov	r1, r8
 800347e:	4628      	mov	r0, r5
 8003480:	f001 fbee 	bl	8004c60 <TIM_TimeBaseInit>
 8003484:	4b2e      	ldr	r3, [pc, #184]	@ (8003540 <BSP_PWM_Init+0x188>)
 8003486:	6023      	str	r3, [r4, #0]
 8003488:	4621      	mov	r1, r4
 800348a:	4650      	mov	r0, sl
 800348c:	e9c4 7702 	strd	r7, r7, [r4, #8]
 8003490:	6127      	str	r7, [r4, #16]
 8003492:	80a7      	strh	r7, [r4, #4]
 8003494:	f001 fcea 	bl	8004e6c <TIM_OC3Init>
 8003498:	4621      	mov	r1, r4
 800349a:	4630      	mov	r0, r6
 800349c:	f001 fc58 	bl	8004d50 <TIM_OC1Init>
 80034a0:	4621      	mov	r1, r4
 80034a2:	4630      	mov	r0, r6
 80034a4:	f001 fc98 	bl	8004dd8 <TIM_OC2Init>
 80034a8:	4621      	mov	r1, r4
 80034aa:	4628      	mov	r0, r5
 80034ac:	f001 fc50 	bl	8004d50 <TIM_OC1Init>
 80034b0:	4621      	mov	r1, r4
 80034b2:	4628      	mov	r0, r5
 80034b4:	f001 fc90 	bl	8004dd8 <TIM_OC2Init>
 80034b8:	4650      	mov	r0, sl
 80034ba:	2108      	movs	r1, #8
 80034bc:	f001 fd36 	bl	8004f2c <TIM_OC3PreloadConfig>
 80034c0:	4630      	mov	r0, r6
 80034c2:	2108      	movs	r1, #8
 80034c4:	f001 fd20 	bl	8004f08 <TIM_OC1PreloadConfig>
 80034c8:	4630      	mov	r0, r6
 80034ca:	2108      	movs	r1, #8
 80034cc:	f001 fd24 	bl	8004f18 <TIM_OC2PreloadConfig>
 80034d0:	4628      	mov	r0, r5
 80034d2:	2108      	movs	r1, #8
 80034d4:	f001 fd18 	bl	8004f08 <TIM_OC1PreloadConfig>
 80034d8:	4628      	mov	r0, r5
 80034da:	2108      	movs	r1, #8
 80034dc:	f001 fd1c 	bl	8004f18 <TIM_OC2PreloadConfig>
 80034e0:	4628      	mov	r0, r5
 80034e2:	2101      	movs	r1, #1
 80034e4:	f001 fc18 	bl	8004d18 <TIM_ARRPreloadConfig>
 80034e8:	4630      	mov	r0, r6
 80034ea:	2101      	movs	r1, #1
 80034ec:	f001 fd28 	bl	8004f40 <TIM_CtrlPWMOutputs>
 80034f0:	4650      	mov	r0, sl
 80034f2:	2101      	movs	r1, #1
 80034f4:	f001 fc1e 	bl	8004d34 <TIM_Cmd>
 80034f8:	4630      	mov	r0, r6
 80034fa:	2101      	movs	r1, #1
 80034fc:	f001 fc1a 	bl	8004d34 <TIM_Cmd>
 8003500:	4628      	mov	r0, r5
 8003502:	2101      	movs	r1, #1
 8003504:	f001 fc16 	bl	8004d34 <TIM_Cmd>
 8003508:	2202      	movs	r2, #2
 800350a:	f04f 7380 	mov.w	r3, #16777216	@ 0x1000000
 800350e:	4669      	mov	r1, sp
 8003510:	4648      	mov	r0, r9
 8003512:	e9cd 2300 	strd	r2, r3, [sp]
 8003516:	f001 f9ab 	bl	8004870 <GPIO_Init>
 800351a:	b002      	add	sp, #8
 800351c:	e8bd 87f0 	ldmia.w	sp!, {r4, r5, r6, r7, r8, r9, sl, pc}
 8003520:	40020400 	andmi	r0, r2, r0, lsl #8
 8003524:	40020800 	andmi	r0, r2, r0, lsl #16
 8003528:	20003b94 	mulcs	r0, r4, fp
 800352c:	20003b9c 	mulcs	r0, ip, fp
 8003530:	40000400 	andmi	r0, r0, r0, lsl #8
 8003534:	40010400 	andmi	r0, r1, r0, lsl #8
 8003538:	02000002 	andeq	r0, r0, #2
 800353c:	20003ba8 	andcs	r3, r0, r8, lsr #23
 8003540:	00010060 	andeq	r0, r1, r0, rrx

08003544 <BSP_PWM_Set>:
 8003544:	f5b1 6f7a 	cmp.w	r1, #4000	@ 0xfa0
 8003548:	b510      	push	{r4, lr}
 800354a:	bf28      	it	cs
 800354c:	f44f 617a 	movcs.w	r1, #4000	@ 0xfa0
 8003550:	2804      	cmp	r0, #4
 8003552:	d81e      	bhi.n	8003592 <BSP_PWM_Set+0x4e>
 8003554:	e8df f000 	tbb	[pc, r0]
 8003558:	120d1708 	andne	r1, sp, #8, 14	@ 0x200000
 800355c:	480e0003 	stmdami	lr, {r0, r1}
 8003560:	f001 fcd0 	bl	8004f04 <TIM_SetCompare3>
 8003564:	2001      	movs	r0, #1
 8003566:	bd10      	pop	{r4, pc}
 8003568:	480c      	ldr	r0, [pc, #48]	@ (800359c <BSP_PWM_Set+0x58>)
 800356a:	f001 fcc7 	bl	8004efc <TIM_SetCompare1>
 800356e:	2001      	movs	r0, #1
 8003570:	bd10      	pop	{r4, pc}
 8003572:	480b      	ldr	r0, [pc, #44]	@ (80035a0 <BSP_PWM_Set+0x5c>)
 8003574:	f001 fcc2 	bl	8004efc <TIM_SetCompare1>
 8003578:	2001      	movs	r0, #1
 800357a:	bd10      	pop	{r4, pc}
 800357c:	4808      	ldr	r0, [pc, #32]	@ (80035a0 <BSP_PWM_Set+0x5c>)
 800357e:	f001 fcbf 	bl	8004f00 <TIM_SetCompare2>
 8003582:	2001      	movs	r0, #1
 8003584:	bd10      	pop	{r4, pc}
 8003586:	4604      	mov	r4, r0
 8003588:	4804      	ldr	r0, [pc, #16]	@ (800359c <BSP_PWM_Set+0x58>)
 800358a:	f001 fcb9 	bl	8004f00 <TIM_SetCompare2>
 800358e:	4620      	mov	r0, r4
 8003590:	bd10      	pop	{r4, pc}
 8003592:	2000      	movs	r0, #0
 8003594:	bd10      	pop	{r4, pc}
 8003596:	bf00      	nop
 8003598:	40000400 	andmi	r0, r0, r0, lsl #8
 800359c:	40010400 	andmi	r0, r1, r0, lsl #8
 80035a0:	40001800 	andmi	r1, r0, r0, lsl #16

080035a4 <BSP_Contactor_Get>:
 80035a4:	2804      	cmp	r0, #4
 80035a6:	b508      	push	{r3, lr}
 80035a8:	d003      	beq.n	80035b2 <BSP_Contactor_Get+0xe>
 80035aa:	2803      	cmp	r0, #3
 80035ac:	d008      	beq.n	80035c0 <BSP_Contactor_Get+0x1c>
 80035ae:	2000      	movs	r0, #0
 80035b0:	bd08      	pop	{r3, pc}
 80035b2:	4b07      	ldr	r3, [pc, #28]	@ (80035d0 <BSP_Contactor_Get+0x2c>)
 80035b4:	6918      	ldr	r0, [r3, #16]
 80035b6:	f080 0002 	eor.w	r0, r0, #2
 80035ba:	f3c0 0040 	ubfx	r0, r0, #1, #1
 80035be:	bd08      	pop	{r3, pc}
 80035c0:	4804      	ldr	r0, [pc, #16]	@ (80035d4 <BSP_Contactor_Get+0x30>)
 80035c2:	f001 fcbb 	bl	8004f3c <TIM_GetCapture2>
 80035c6:	3800      	subs	r0, #0
 80035c8:	bf18      	it	ne
 80035ca:	2001      	movne	r0, #1
 80035cc:	bd08      	pop	{r3, pc}
 80035ce:	bf00      	nop
 80035d0:	40020400 	andmi	r0, r2, r0, lsl #8
 80035d4:	40001800 	andmi	r1, r0, r0, lsl #16

080035d8 <BSP_SPI_Init>:
 80035d8:	e92d 43f0 	stmdb	sp!, {r4, r5, r6, r7, r8, r9, lr}
 80035dc:	4c68      	ldr	r4, [pc, #416]	@ (8003780 <BSP_SPI_Init+0x1a8>)
 80035de:	4d69      	ldr	r5, [pc, #420]	@ (8003784 <BSP_SPI_Init+0x1ac>)
 80035e0:	b0c7      	sub	sp, #284	@ 0x11c
 80035e2:	4606      	mov	r6, r0
 80035e4:	4689      	mov	r9, r1
 80035e6:	4617      	mov	r7, r2
 80035e8:	f504 7888 	add.w	r8, r4, #272	@ 0x110
 80035ec:	2288      	movs	r2, #136	@ 0x88
 80035ee:	2100      	movs	r1, #0
 80035f0:	a802      	add	r0, sp, #8
 80035f2:	f7fc ff7f 	bl	80004f4 <memset>
 80035f6:	2288      	movs	r2, #136	@ 0x88
 80035f8:	2100      	movs	r1, #0
 80035fa:	a824      	add	r0, sp, #144	@ 0x90
 80035fc:	f7fc ff7a 	bl	80004f4 <memset>
 8003600:	2288      	movs	r2, #136	@ 0x88
 8003602:	a924      	add	r1, sp, #144	@ 0x90
 8003604:	4620      	mov	r0, r4
 8003606:	f7fc fedb 	bl	80003c0 <memcpy>
 800360a:	2248      	movs	r2, #72	@ 0x48
 800360c:	2100      	movs	r1, #0
 800360e:	a802      	add	r0, sp, #8
 8003610:	f7fc ff70 	bl	80004f4 <memset>
 8003614:	2248      	movs	r2, #72	@ 0x48
 8003616:	2100      	movs	r1, #0
 8003618:	a824      	add	r0, sp, #144	@ 0x90
 800361a:	f7fc ff6b 	bl	80004f4 <memset>
 800361e:	3488      	adds	r4, #136	@ 0x88
 8003620:	4628      	mov	r0, r5
 8003622:	2248      	movs	r2, #72	@ 0x48
 8003624:	a924      	add	r1, sp, #144	@ 0x90
 8003626:	f7fc fecb 	bl	80003c0 <memcpy>
 800362a:	45a0      	cmp	r8, r4
 800362c:	f105 0548 	add.w	r5, r5, #72	@ 0x48
 8003630:	d1dc      	bne.n	80035ec <BSP_SPI_Init+0x14>
 8003632:	4c55      	ldr	r4, [pc, #340]	@ (8003788 <BSP_SPI_Init+0x1b0>)
 8003634:	55a7      	strb	r7, [r4, r6]
 8003636:	b126      	cbz	r6, 8003642 <BSP_SPI_Init+0x6a>
 8003638:	2e01      	cmp	r6, #1
 800363a:	d051      	beq.n	80036e0 <BSP_SPI_Init+0x108>
 800363c:	b047      	add	sp, #284	@ 0x11c
 800363e:	e8bd 83f0 	ldmia.w	sp!, {r4, r5, r6, r7, r8, r9, pc}
 8003642:	2101      	movs	r1, #1
 8003644:	2002      	movs	r0, #2
 8003646:	f001 fa5b 	bl	8004b00 <RCC_AHB1PeriphClockCmd>
 800364a:	2101      	movs	r1, #1
 800364c:	2008      	movs	r0, #8
 800364e:	f001 fa57 	bl	8004b00 <RCC_AHB1PeriphClockCmd>
 8003652:	2101      	movs	r1, #1
 8003654:	f44f 5080 	mov.w	r0, #4096	@ 0x1000
 8003658:	f001 fa6a 	bl	8004b30 <RCC_APB2PeriphClockCmd>
 800365c:	f8df c12c 	ldr.w	ip, [pc, #300]	@ 800378c <BSP_SPI_Init+0x1b4>
 8003660:	484b      	ldr	r0, [pc, #300]	@ (8003790 <BSP_SPI_Init+0x1b8>)
 8003662:	2338      	movs	r3, #56	@ 0x38
 8003664:	a902      	add	r1, sp, #8
 8003666:	e9cd 3c02 	strd	r3, ip, [sp, #8]
 800366a:	f001 f901 	bl	8004870 <GPIO_Init>
 800366e:	4848      	ldr	r0, [pc, #288]	@ (8003790 <BSP_SPI_Init+0x1b8>)
 8003670:	2205      	movs	r2, #5
 8003672:	2103      	movs	r1, #3
 8003674:	f001 f94a 	bl	800490c <GPIO_PinAFConfig>
 8003678:	4845      	ldr	r0, [pc, #276]	@ (8003790 <BSP_SPI_Init+0x1b8>)
 800367a:	2205      	movs	r2, #5
 800367c:	2104      	movs	r1, #4
 800367e:	f001 f945 	bl	800490c <GPIO_PinAFConfig>
 8003682:	2205      	movs	r2, #5
 8003684:	4611      	mov	r1, r2
 8003686:	4842      	ldr	r0, [pc, #264]	@ (8003790 <BSP_SPI_Init+0x1b8>)
 8003688:	f001 f940 	bl	800490c <GPIO_PinAFConfig>
 800368c:	4b41      	ldr	r3, [pc, #260]	@ (8003794 <BSP_SPI_Init+0x1bc>)
 800368e:	9326      	str	r3, [sp, #152]	@ 0x98
 8003690:	f04f 7882 	mov.w	r8, #17039360	@ 0x1040000
 8003694:	f44f 3300 	mov.w	r3, #131072	@ 0x20000
 8003698:	e9cd 8324 	strd	r8, r3, [sp, #144]	@ 0x90
 800369c:	483e      	ldr	r0, [pc, #248]	@ (8003798 <BSP_SPI_Init+0x1c0>)
 800369e:	f8ad 60a0 	strh.w	r6, [sp, #160]	@ 0xa0
 80036a2:	2330      	movs	r3, #48	@ 0x30
 80036a4:	a924      	add	r1, sp, #144	@ 0x90
 80036a6:	9327      	str	r3, [sp, #156]	@ 0x9c
 80036a8:	f001 fa7c 	bl	8004ba4 <SPI_Init>
 80036ac:	483a      	ldr	r0, [pc, #232]	@ (8003798 <BSP_SPI_Init+0x1c0>)
 80036ae:	2101      	movs	r1, #1
 80036b0:	f001 faa2 	bl	8004bf8 <SPI_Cmd>
 80036b4:	4b39      	ldr	r3, [pc, #228]	@ (800379c <BSP_SPI_Init+0x1c4>)
 80036b6:	483a      	ldr	r0, [pc, #232]	@ (80037a0 <BSP_SPI_Init+0x1c8>)
 80036b8:	2204      	movs	r2, #4
 80036ba:	a902      	add	r1, sp, #8
 80036bc:	e9cd 2302 	strd	r2, r3, [sp, #8]
 80036c0:	f001 f8d6 	bl	8004870 <GPIO_Init>
 80036c4:	4a37      	ldr	r2, [pc, #220]	@ (80037a4 <BSP_SPI_Init+0x1cc>)
 80036c6:	7823      	ldrb	r3, [r4, #0]
 80036c8:	f8c2 9000 	str.w	r9, [r2]
 80036cc:	2b00      	cmp	r3, #0
 80036ce:	d1b5      	bne.n	800363c <BSP_SPI_Init+0x64>
 80036d0:	4b35      	ldr	r3, [pc, #212]	@ (80037a8 <BSP_SPI_Init+0x1d0>)
 80036d2:	9301      	str	r3, [sp, #4]
 80036d4:	a801      	add	r0, sp, #4
 80036d6:	f000 fe7b 	bl	80043d0 <NVIC_Init>
 80036da:	b047      	add	sp, #284	@ 0x11c
 80036dc:	e8bd 83f0 	ldmia.w	sp!, {r4, r5, r6, r7, r8, r9, pc}
 80036e0:	4631      	mov	r1, r6
 80036e2:	2004      	movs	r0, #4
 80036e4:	f001 fa0c 	bl	8004b00 <RCC_AHB1PeriphClockCmd>
 80036e8:	4631      	mov	r1, r6
 80036ea:	4630      	mov	r0, r6
 80036ec:	f001 fa08 	bl	8004b00 <RCC_AHB1PeriphClockCmd>
 80036f0:	4631      	mov	r1, r6
 80036f2:	f44f 4000 	mov.w	r0, #32768	@ 0x8000
 80036f6:	f001 fa0f 	bl	8004b18 <RCC_APB1PeriphClockCmd>
 80036fa:	4a24      	ldr	r2, [pc, #144]	@ (800378c <BSP_SPI_Init+0x1b4>)
 80036fc:	482b      	ldr	r0, [pc, #172]	@ (80037ac <BSP_SPI_Init+0x1d4>)
 80036fe:	f44f 53e0 	mov.w	r3, #7168	@ 0x1c00
 8003702:	a902      	add	r1, sp, #8
 8003704:	e9cd 3202 	strd	r3, r2, [sp, #8]
 8003708:	f001 f8b2 	bl	8004870 <GPIO_Init>
 800370c:	4827      	ldr	r0, [pc, #156]	@ (80037ac <BSP_SPI_Init+0x1d4>)
 800370e:	2206      	movs	r2, #6
 8003710:	210a      	movs	r1, #10
 8003712:	f001 f8fb 	bl	800490c <GPIO_PinAFConfig>
 8003716:	4825      	ldr	r0, [pc, #148]	@ (80037ac <BSP_SPI_Init+0x1d4>)
 8003718:	2206      	movs	r2, #6
 800371a:	210b      	movs	r1, #11
 800371c:	f001 f8f6 	bl	800490c <GPIO_PinAFConfig>
 8003720:	2206      	movs	r2, #6
 8003722:	4822      	ldr	r0, [pc, #136]	@ (80037ac <BSP_SPI_Init+0x1d4>)
 8003724:	210c      	movs	r1, #12
 8003726:	f001 f8f1 	bl	800490c <GPIO_PinAFConfig>
 800372a:	4b1a      	ldr	r3, [pc, #104]	@ (8003794 <BSP_SPI_Init+0x1bc>)
 800372c:	9326      	str	r3, [sp, #152]	@ 0x98
 800372e:	f04f 7782 	mov.w	r7, #17039360	@ 0x1040000
 8003732:	f44f 3300 	mov.w	r3, #131072	@ 0x20000
 8003736:	e9cd 7324 	strd	r7, r3, [sp, #144]	@ 0x90
 800373a:	2338      	movs	r3, #56	@ 0x38
 800373c:	481c      	ldr	r0, [pc, #112]	@ (80037b0 <BSP_SPI_Init+0x1d8>)
 800373e:	9327      	str	r3, [sp, #156]	@ 0x9c
 8003740:	a924      	add	r1, sp, #144	@ 0x90
 8003742:	2300      	movs	r3, #0
 8003744:	f8ad 30a0 	strh.w	r3, [sp, #160]	@ 0xa0
 8003748:	f001 fa2c 	bl	8004ba4 <SPI_Init>
 800374c:	4818      	ldr	r0, [pc, #96]	@ (80037b0 <BSP_SPI_Init+0x1d8>)
 800374e:	4631      	mov	r1, r6
 8003750:	f001 fa52 	bl	8004bf8 <SPI_Cmd>
 8003754:	4b11      	ldr	r3, [pc, #68]	@ (800379c <BSP_SPI_Init+0x1c4>)
 8003756:	4817      	ldr	r0, [pc, #92]	@ (80037b4 <BSP_SPI_Init+0x1dc>)
 8003758:	f44f 4200 	mov.w	r2, #32768	@ 0x8000
 800375c:	a902      	add	r1, sp, #8
 800375e:	e9cd 2302 	strd	r2, r3, [sp, #8]
 8003762:	f001 f885 	bl	8004870 <GPIO_Init>
 8003766:	4a0f      	ldr	r2, [pc, #60]	@ (80037a4 <BSP_SPI_Init+0x1cc>)
 8003768:	7863      	ldrb	r3, [r4, #1]
 800376a:	f8c2 9004 	str.w	r9, [r2, #4]
 800376e:	2b00      	cmp	r3, #0
 8003770:	f47f af64 	bne.w	800363c <BSP_SPI_Init+0x64>
 8003774:	4b10      	ldr	r3, [pc, #64]	@ (80037b8 <BSP_SPI_Init+0x1e0>)
 8003776:	9301      	str	r3, [sp, #4]
 8003778:	a801      	add	r0, sp, #4
 800377a:	f000 fe29 	bl	80043d0 <NVIC_Init>
 800377e:	e75d      	b.n	800363c <BSP_SPI_Init+0x64>
 8003780:	20003c58 	andcs	r3, r0, r8, asr ip
 8003784:	20003bc8 	andcs	r3, r0, r8, asr #23
 8003788:	20003bbc 			@ <UNDEFINED> instruction: 0x20003bbc
 800378c:	01000202 	tsteq	r0, r2, lsl #4
 8003790:	40020400 	andmi	r0, r2, r0, lsl #8
 8003794:	02000001 	andeq	r0, r0, #1
 8003798:	40013000 	andmi	r3, r1, r0
 800379c:	01000201 	tsteq	r0, r1, lsl #4
 80037a0:	40020c00 	andmi	r0, r2, r0, lsl #24
 80037a4:	20003bc0 	andcs	r3, r0, r0, asr #23
 80037a8:	01000023 	tsteq	r0, r3, lsr #32
 80037ac:	40020800 	andmi	r0, r2, r0, lsl #16
 80037b0:	40003c00 	andmi	r3, r0, r0, lsl #24
 80037b4:	40020000 	andmi	r0, r2, r0
 80037b8:	01010033 	tsteq	r1, r3, lsr r0

080037bc <BSP_SPI_SetClock>:
 80037bc:	b510      	push	{r4, lr}
 80037be:	2801      	cmp	r0, #1
 80037c0:	b086      	sub	sp, #24
 80037c2:	f04f 7082 	mov.w	r0, #17039360	@ 0x1040000
 80037c6:	f44f 3100 	mov.w	r1, #131072	@ 0x20000
 80037ca:	e9cd 0101 	strd	r0, r1, [sp, #4]
 80037ce:	f04f 0300 	mov.w	r3, #0
 80037d2:	bf0c      	ite	eq
 80037d4:	2238      	moveq	r2, #56	@ 0x38
 80037d6:	2230      	movne	r2, #48	@ 0x30
 80037d8:	4c06      	ldr	r4, [pc, #24]	@ (80037f4 <BSP_SPI_SetClock+0x38>)
 80037da:	4807      	ldr	r0, [pc, #28]	@ (80037f8 <BSP_SPI_SetClock+0x3c>)
 80037dc:	9403      	str	r4, [sp, #12]
 80037de:	a901      	add	r1, sp, #4
 80037e0:	f8ad 2010 	strh.w	r2, [sp, #16]
 80037e4:	f8ad 3012 	strh.w	r3, [sp, #18]
 80037e8:	f8ad 3014 	strh.w	r3, [sp, #20]
 80037ec:	f001 f9da 	bl	8004ba4 <SPI_Init>
 80037f0:	b006      	add	sp, #24
 80037f2:	bd10      	pop	{r4, pc}
 80037f4:	02000001 	andeq	r0, r0, #1
 80037f8:	40003c00 	andmi	r3, r0, r0, lsl #24

080037fc <BSP_SPI_Write>:
 80037fc:	2a07      	cmp	r2, #7
 80037fe:	e92d 47f0 	stmdb	sp!, {r4, r5, r6, r7, r8, r9, sl, lr}
 8003802:	4615      	mov	r5, r2
 8003804:	4680      	mov	r8, r0
 8003806:	4689      	mov	r9, r1
 8003808:	d929      	bls.n	800385e <BSP_SPI_Write+0x62>
 800380a:	f8df a0f8 	ldr.w	sl, [pc, #248]	@ 8003904 <BSP_SPI_Write+0x108>
 800380e:	f81a c000 	ldrb.w	ip, [sl, r0]
 8003812:	f1bc 0f01 	cmp.w	ip, #1
 8003816:	d023      	beq.n	8003860 <BSP_SPI_Write+0x64>
 8003818:	4b3b      	ldr	r3, [pc, #236]	@ (8003908 <BSP_SPI_Write+0x10c>)
 800381a:	4f3c      	ldr	r7, [pc, #240]	@ (800390c <BSP_SPI_Write+0x110>)
 800381c:	f853 4020 	ldr.w	r4, [r3, r0, lsl #2]
 8003820:	eb00 1300 	add.w	r3, r0, r0, lsl #4
 8003824:	eb07 07c3 	add.w	r7, r7, r3, lsl #3
 8003828:	2600      	movs	r6, #0
 800382a:	42b5      	cmp	r5, r6
 800382c:	d938      	bls.n	80038a0 <BSP_SPI_Write+0xa4>
 800382e:	e9d7 0e20 	ldrd	r0, lr, [r7, #128]	@ 0x80
 8003832:	1e71      	subs	r1, r6, #1
 8003834:	4449      	add	r1, r9
 8003836:	1c43      	adds	r3, r0, #1
 8003838:	425a      	negs	r2, r3
 800383a:	f002 027f 	and.w	r2, r2, #127	@ 0x7f
 800383e:	f003 037f 	and.w	r3, r3, #127	@ 0x7f
 8003842:	bf58      	it	pl
 8003844:	4253      	negpl	r3, r2
 8003846:	4573      	cmp	r3, lr
 8003848:	d039      	beq.n	80038be <BSP_SPI_Write+0xc2>
 800384a:	3601      	adds	r6, #1
 800384c:	f811 2f01 	ldrb.w	r2, [r1, #1]!
 8003850:	543a      	strb	r2, [r7, r0]
 8003852:	42b5      	cmp	r5, r6
 8003854:	f8c7 3080 	str.w	r3, [r7, #128]	@ 0x80
 8003858:	d022      	beq.n	80038a0 <BSP_SPI_Write+0xa4>
 800385a:	4618      	mov	r0, r3
 800385c:	e7eb      	b.n	8003836 <BSP_SPI_Write+0x3a>
 800385e:	b35a      	cbz	r2, 80038b8 <BSP_SPI_Write+0xbc>
 8003860:	f1b8 0f01 	cmp.w	r8, #1
 8003864:	d84b      	bhi.n	80038fe <BSP_SPI_Write+0x102>
 8003866:	4b28      	ldr	r3, [pc, #160]	@ (8003908 <BSP_SPI_Write+0x10c>)
 8003868:	f899 2000 	ldrb.w	r2, [r9]
 800386c:	f853 3028 	ldr.w	r3, [r3, r8, lsl #2]
 8003870:	4648      	mov	r0, r9
 8003872:	f1c9 0401 	rsb	r4, r9, #1
 8003876:	8919      	ldrh	r1, [r3, #8]
 8003878:	078e      	lsls	r6, r1, #30
 800387a:	d0fc      	beq.n	8003876 <BSP_SPI_Write+0x7a>
 800387c:	8919      	ldrh	r1, [r3, #8]
 800387e:	0609      	lsls	r1, r1, #24
 8003880:	d4f9      	bmi.n	8003876 <BSP_SPI_Write+0x7a>
 8003882:	b292      	uxth	r2, r2
 8003884:	819a      	strh	r2, [r3, #12]
 8003886:	8919      	ldrh	r1, [r3, #8]
 8003888:	078f      	lsls	r7, r1, #30
 800388a:	d0fc      	beq.n	8003886 <BSP_SPI_Write+0x8a>
 800388c:	8919      	ldrh	r1, [r3, #8]
 800388e:	060e      	lsls	r6, r1, #24
 8003890:	d4f9      	bmi.n	8003886 <BSP_SPI_Write+0x8a>
 8003892:	1822      	adds	r2, r4, r0
 8003894:	42aa      	cmp	r2, r5
 8003896:	8999      	ldrh	r1, [r3, #12]
 8003898:	d20e      	bcs.n	80038b8 <BSP_SPI_Write+0xbc>
 800389a:	f810 2f01 	ldrb.w	r2, [r0, #1]!
 800389e:	e7ea      	b.n	8003876 <BSP_SPI_Write+0x7a>
 80038a0:	f1bc 0f00 	cmp.w	ip, #0
 80038a4:	d020      	beq.n	80038e8 <BSP_SPI_Write+0xec>
 80038a6:	f1bc 0f01 	cmp.w	ip, #1
 80038aa:	d016      	beq.n	80038da <BSP_SPI_Write+0xde>
 80038ac:	8923      	ldrh	r3, [r4, #8]
 80038ae:	079a      	lsls	r2, r3, #30
 80038b0:	d0fc      	beq.n	80038ac <BSP_SPI_Write+0xb0>
 80038b2:	8923      	ldrh	r3, [r4, #8]
 80038b4:	061b      	lsls	r3, r3, #24
 80038b6:	d4f9      	bmi.n	80038ac <BSP_SPI_Write+0xb0>
 80038b8:	2001      	movs	r0, #1
 80038ba:	e8bd 87f0 	ldmia.w	sp!, {r4, r5, r6, r7, r8, r9, sl, pc}
 80038be:	f1bc 0f00 	cmp.w	ip, #0
 80038c2:	d011      	beq.n	80038e8 <BSP_SPI_Write+0xec>
 80038c4:	f1bc 0f01 	cmp.w	ip, #1
 80038c8:	d007      	beq.n	80038da <BSP_SPI_Write+0xde>
 80038ca:	42b5      	cmp	r5, r6
 80038cc:	d9ee      	bls.n	80038ac <BSP_SPI_Write+0xb0>
 80038ce:	f81a c008 	ldrb.w	ip, [sl, r8]
 80038d2:	e7aa      	b.n	800382a <BSP_SPI_Write+0x2e>
 80038d4:	8923      	ldrh	r3, [r4, #8]
 80038d6:	0619      	lsls	r1, r3, #24
 80038d8:	d5f7      	bpl.n	80038ca <BSP_SPI_Write+0xce>
 80038da:	8923      	ldrh	r3, [r4, #8]
 80038dc:	0798      	lsls	r0, r3, #30
 80038de:	d1f9      	bne.n	80038d4 <BSP_SPI_Write+0xd8>
 80038e0:	8923      	ldrh	r3, [r4, #8]
 80038e2:	0798      	lsls	r0, r3, #30
 80038e4:	d0f9      	beq.n	80038da <BSP_SPI_Write+0xde>
 80038e6:	e7f5      	b.n	80038d4 <BSP_SPI_Write+0xd8>
 80038e8:	2201      	movs	r2, #1
 80038ea:	2171      	movs	r1, #113	@ 0x71
 80038ec:	4620      	mov	r0, r4
 80038ee:	f001 f991 	bl	8004c14 <SPI_I2S_ITConfig>
 80038f2:	4b07      	ldr	r3, [pc, #28]	@ (8003910 <BSP_SPI_Write+0x114>)
 80038f4:	f853 3028 	ldr.w	r3, [r3, r8, lsl #2]
 80038f8:	681b      	ldr	r3, [r3, #0]
 80038fa:	4798      	blx	r3
 80038fc:	e7e5      	b.n	80038ca <BSP_SPI_Write+0xce>
 80038fe:	2000      	movs	r0, #0
 8003900:	e8bd 87f0 	ldmia.w	sp!, {r4, r5, r6, r7, r8, r9, sl, pc}
 8003904:	20003bbc 			@ <UNDEFINED> instruction: 0x20003bbc
 8003908:	0800964c 	stmdaeq	r0, {r2, r3, r6, r9, sl, ip, pc}
 800390c:	20003c58 	andcs	r3, r0, r8, asr ip
 8003910:	20003bc0 	andcs	r3, r0, r0, asr #23

08003914 <BSP_SPI_Read>:
 8003914:	e92d 4ff0 	stmdb	sp!, {r4, r5, r6, r7, r8, r9, sl, fp, lr}
 8003918:	b085      	sub	sp, #20
 800391a:	2a07      	cmp	r2, #7
 800391c:	4617      	mov	r7, r2
 800391e:	4680      	mov	r8, r0
 8003920:	9101      	str	r1, [sp, #4]
 8003922:	d925      	bls.n	8003970 <BSP_SPI_Read+0x5c>
 8003924:	4b7b      	ldr	r3, [pc, #492]	@ (8003b14 <BSP_SPI_Read+0x200>)
 8003926:	5c1b      	ldrb	r3, [r3, r0]
 8003928:	2b01      	cmp	r3, #1
 800392a:	d12a      	bne.n	8003982 <BSP_SPI_Read+0x6e>
 800392c:	f1b8 0f01 	cmp.w	r8, #1
 8003930:	d823      	bhi.n	800397a <BSP_SPI_Read+0x66>
 8003932:	4b79      	ldr	r3, [pc, #484]	@ (8003b18 <BSP_SPI_Read+0x204>)
 8003934:	9a01      	ldr	r2, [sp, #4]
 8003936:	f853 3028 	ldr.w	r3, [r3, r8, lsl #2]
 800393a:	1e51      	subs	r1, r2, #1
 800393c:	f1c2 0001 	rsb	r0, r2, #1
 8003940:	891a      	ldrh	r2, [r3, #8]
 8003942:	0795      	lsls	r5, r2, #30
 8003944:	d0fc      	beq.n	8003940 <BSP_SPI_Read+0x2c>
 8003946:	891a      	ldrh	r2, [r3, #8]
 8003948:	f012 0280 	ands.w	r2, r2, #128	@ 0x80
 800394c:	d1f8      	bne.n	8003940 <BSP_SPI_Read+0x2c>
 800394e:	819a      	strh	r2, [r3, #12]
 8003950:	891a      	ldrh	r2, [r3, #8]
 8003952:	0794      	lsls	r4, r2, #30
 8003954:	d0fc      	beq.n	8003950 <BSP_SPI_Read+0x3c>
 8003956:	891a      	ldrh	r2, [r3, #8]
 8003958:	0612      	lsls	r2, r2, #24
 800395a:	d4f9      	bmi.n	8003950 <BSP_SPI_Read+0x3c>
 800395c:	899a      	ldrh	r2, [r3, #12]
 800395e:	f801 2f01 	strb.w	r2, [r1, #1]!
 8003962:	1842      	adds	r2, r0, r1
 8003964:	4297      	cmp	r7, r2
 8003966:	d8eb      	bhi.n	8003940 <BSP_SPI_Read+0x2c>
 8003968:	2001      	movs	r0, #1
 800396a:	b005      	add	sp, #20
 800396c:	e8bd 8ff0 	ldmia.w	sp!, {r4, r5, r6, r7, r8, r9, sl, fp, pc}
 8003970:	2a00      	cmp	r2, #0
 8003972:	d0f9      	beq.n	8003968 <BSP_SPI_Read+0x54>
 8003974:	f1b8 0f01 	cmp.w	r8, #1
 8003978:	d9db      	bls.n	8003932 <BSP_SPI_Read+0x1e>
 800397a:	2000      	movs	r0, #0
 800397c:	b005      	add	sp, #20
 800397e:	e8bd 8ff0 	ldmia.w	sp!, {r4, r5, r6, r7, r8, r9, sl, fp, pc}
 8003982:	4b65      	ldr	r3, [pc, #404]	@ (8003b18 <BSP_SPI_Read+0x204>)
 8003984:	f8df b194 	ldr.w	fp, [pc, #404]	@ 8003b1c <BSP_SPI_Read+0x208>
 8003988:	f853 0020 	ldr.w	r0, [r3, r0, lsl #2]
 800398c:	9002      	str	r0, [sp, #8]
 800398e:	2201      	movs	r2, #1
 8003990:	2160      	movs	r1, #96	@ 0x60
 8003992:	f001 f93f 	bl	8004c14 <SPI_I2S_ITConfig>
 8003996:	eb08 03c8 	add.w	r3, r8, r8, lsl #3
 800399a:	eb0b 03c3 	add.w	r3, fp, r3, lsl #3
 800399e:	4960      	ldr	r1, [pc, #384]	@ (8003b20 <BSP_SPI_Read+0x20c>)
 80039a0:	6c1a      	ldr	r2, [r3, #64]	@ 0x40
 80039a2:	9802      	ldr	r0, [sp, #8]
 80039a4:	645a      	str	r2, [r3, #68]	@ 0x44
 80039a6:	2500      	movs	r5, #0
 80039a8:	eb08 1a08 	add.w	sl, r8, r8, lsl #4
 80039ac:	eb01 0aca 	add.w	sl, r1, sl, lsl #3
 80039b0:	ea4f 04c8 	mov.w	r4, r8, lsl #3
 80039b4:	46a9      	mov	r9, r5
 80039b6:	454f      	cmp	r7, r9
 80039b8:	bf98      	it	ls
 80039ba:	464e      	movls	r6, r9
 80039bc:	d917      	bls.n	80039ee <BSP_SPI_Read+0xda>
 80039be:	e9da 1c20 	ldrd	r1, ip, [sl, #128]	@ 0x80
 80039c2:	464e      	mov	r6, r9
 80039c4:	f04f 0e00 	mov.w	lr, #0
 80039c8:	1c4b      	adds	r3, r1, #1
 80039ca:	425a      	negs	r2, r3
 80039cc:	f002 027f 	and.w	r2, r2, #127	@ 0x7f
 80039d0:	f003 037f 	and.w	r3, r3, #127	@ 0x7f
 80039d4:	bf58      	it	pl
 80039d6:	4253      	negpl	r3, r2
 80039d8:	4563      	cmp	r3, ip
 80039da:	d008      	beq.n	80039ee <BSP_SPI_Read+0xda>
 80039dc:	3601      	adds	r6, #1
 80039de:	42b7      	cmp	r7, r6
 80039e0:	f80a e001 	strb.w	lr, [sl, r1]
 80039e4:	f8ca 3080 	str.w	r3, [sl, #128]	@ 0x80
 80039e8:	d001      	beq.n	80039ee <BSP_SPI_Read+0xda>
 80039ea:	4619      	mov	r1, r3
 80039ec:	e7ec      	b.n	80039c8 <BSP_SPI_Read+0xb4>
 80039ee:	4b49      	ldr	r3, [pc, #292]	@ (8003b14 <BSP_SPI_Read+0x200>)
 80039f0:	f813 3008 	ldrb.w	r3, [r3, r8]
 80039f4:	2b00      	cmp	r3, #0
 80039f6:	d076      	beq.n	8003ae6 <BSP_SPI_Read+0x1d2>
 80039f8:	2b01      	cmp	r3, #1
 80039fa:	d105      	bne.n	8003a08 <BSP_SPI_Read+0xf4>
 80039fc:	8903      	ldrh	r3, [r0, #8]
 80039fe:	079b      	lsls	r3, r3, #30
 8003a00:	d0fc      	beq.n	80039fc <BSP_SPI_Read+0xe8>
 8003a02:	8903      	ldrh	r3, [r0, #8]
 8003a04:	0619      	lsls	r1, r3, #24
 8003a06:	d4f9      	bmi.n	80039fc <BSP_SPI_Read+0xe8>
 8003a08:	8903      	ldrh	r3, [r0, #8]
 8003a0a:	079a      	lsls	r2, r3, #30
 8003a0c:	d0fc      	beq.n	8003a08 <BSP_SPI_Read+0xf4>
 8003a0e:	8903      	ldrh	r3, [r0, #8]
 8003a10:	061b      	lsls	r3, r3, #24
 8003a12:	d4f9      	bmi.n	8003a08 <BSP_SPI_Read+0xf4>
 8003a14:	42ae      	cmp	r6, r5
 8003a16:	d91c      	bls.n	8003a52 <BSP_SPI_Read+0x13e>
 8003a18:	eb04 0108 	add.w	r1, r4, r8
 8003a1c:	9b01      	ldr	r3, [sp, #4]
 8003a1e:	eb0b 01c1 	add.w	r1, fp, r1, lsl #3
 8003a22:	f105 3cff 	add.w	ip, r5, #4294967295	@ 0xffffffff
 8003a26:	449c      	add	ip, r3
 8003a28:	6c4b      	ldr	r3, [r1, #68]	@ 0x44
 8003a2a:	6c0a      	ldr	r2, [r1, #64]	@ 0x40
 8003a2c:	429a      	cmp	r2, r3
 8003a2e:	d010      	beq.n	8003a52 <BSP_SPI_Read+0x13e>
 8003a30:	5ccb      	ldrb	r3, [r1, r3]
 8003a32:	f80c 3f01 	strb.w	r3, [ip, #1]!
 8003a36:	6c4b      	ldr	r3, [r1, #68]	@ 0x44
 8003a38:	3301      	adds	r3, #1
 8003a3a:	425a      	negs	r2, r3
 8003a3c:	f105 0501 	add.w	r5, r5, #1
 8003a40:	f002 023f 	and.w	r2, r2, #63	@ 0x3f
 8003a44:	f003 033f 	and.w	r3, r3, #63	@ 0x3f
 8003a48:	bf58      	it	pl
 8003a4a:	4253      	negpl	r3, r2
 8003a4c:	42b5      	cmp	r5, r6
 8003a4e:	644b      	str	r3, [r1, #68]	@ 0x44
 8003a50:	d1eb      	bne.n	8003a2a <BSP_SPI_Read+0x116>
 8003a52:	42b7      	cmp	r7, r6
 8003a54:	d958      	bls.n	8003b08 <BSP_SPI_Read+0x1f4>
 8003a56:	454f      	cmp	r7, r9
 8003a58:	d901      	bls.n	8003a5e <BSP_SPI_Read+0x14a>
 8003a5a:	46b1      	mov	r9, r6
 8003a5c:	e7ab      	b.n	80039b6 <BSP_SPI_Read+0xa2>
 8003a5e:	4444      	add	r4, r8
 8003a60:	4f30      	ldr	r7, [pc, #192]	@ (8003b24 <BSP_SPI_Read+0x210>)
 8003a62:	eb0b 0bc4 	add.w	fp, fp, r4, lsl #3
 8003a66:	4604      	mov	r4, r0
 8003a68:	4b2a      	ldr	r3, [pc, #168]	@ (8003b14 <BSP_SPI_Read+0x200>)
 8003a6a:	f813 3008 	ldrb.w	r3, [r3, r8]
 8003a6e:	b36b      	cbz	r3, 8003acc <BSP_SPI_Read+0x1b8>
 8003a70:	2b01      	cmp	r3, #1
 8003a72:	d105      	bne.n	8003a80 <BSP_SPI_Read+0x16c>
 8003a74:	8923      	ldrh	r3, [r4, #8]
 8003a76:	0798      	lsls	r0, r3, #30
 8003a78:	d0fc      	beq.n	8003a74 <BSP_SPI_Read+0x160>
 8003a7a:	8923      	ldrh	r3, [r4, #8]
 8003a7c:	0619      	lsls	r1, r3, #24
 8003a7e:	d4f9      	bmi.n	8003a74 <BSP_SPI_Read+0x160>
 8003a80:	8923      	ldrh	r3, [r4, #8]
 8003a82:	079a      	lsls	r2, r3, #30
 8003a84:	d0fc      	beq.n	8003a80 <BSP_SPI_Read+0x16c>
 8003a86:	8923      	ldrh	r3, [r4, #8]
 8003a88:	061b      	lsls	r3, r3, #24
 8003a8a:	d4f9      	bmi.n	8003a80 <BSP_SPI_Read+0x16c>
 8003a8c:	42b5      	cmp	r5, r6
 8003a8e:	d2eb      	bcs.n	8003a68 <BSP_SPI_Read+0x154>
 8003a90:	9a01      	ldr	r2, [sp, #4]
 8003a92:	f8db 3044 	ldr.w	r3, [fp, #68]	@ 0x44
 8003a96:	1e69      	subs	r1, r5, #1
 8003a98:	4411      	add	r1, r2
 8003a9a:	f8db 2040 	ldr.w	r2, [fp, #64]	@ 0x40
 8003a9e:	4293      	cmp	r3, r2
 8003aa0:	d0e2      	beq.n	8003a68 <BSP_SPI_Read+0x154>
 8003aa2:	f81b 3003 	ldrb.w	r3, [fp, r3]
 8003aa6:	f801 3f01 	strb.w	r3, [r1, #1]!
 8003aaa:	f8db 3044 	ldr.w	r3, [fp, #68]	@ 0x44
 8003aae:	3301      	adds	r3, #1
 8003ab0:	425a      	negs	r2, r3
 8003ab2:	f105 0501 	add.w	r5, r5, #1
 8003ab6:	f002 023f 	and.w	r2, r2, #63	@ 0x3f
 8003aba:	f003 033f 	and.w	r3, r3, #63	@ 0x3f
 8003abe:	bf58      	it	pl
 8003ac0:	4253      	negpl	r3, r2
 8003ac2:	42ae      	cmp	r6, r5
 8003ac4:	f8cb 3044 	str.w	r3, [fp, #68]	@ 0x44
 8003ac8:	d1e7      	bne.n	8003a9a <BSP_SPI_Read+0x186>
 8003aca:	e7cd      	b.n	8003a68 <BSP_SPI_Read+0x154>
 8003acc:	2201      	movs	r2, #1
 8003ace:	2171      	movs	r1, #113	@ 0x71
 8003ad0:	4620      	mov	r0, r4
 8003ad2:	f001 f89f 	bl	8004c14 <SPI_I2S_ITConfig>
 8003ad6:	f857 3028 	ldr.w	r3, [r7, r8, lsl #2]
 8003ada:	681b      	ldr	r3, [r3, #0]
 8003adc:	4798      	blx	r3
 8003ade:	8923      	ldrh	r3, [r4, #8]
 8003ae0:	079a      	lsls	r2, r3, #30
 8003ae2:	d0cd      	beq.n	8003a80 <BSP_SPI_Read+0x16c>
 8003ae4:	e7cf      	b.n	8003a86 <BSP_SPI_Read+0x172>
 8003ae6:	4b0f      	ldr	r3, [pc, #60]	@ (8003b24 <BSP_SPI_Read+0x210>)
 8003ae8:	9002      	str	r0, [sp, #8]
 8003aea:	2201      	movs	r2, #1
 8003aec:	2171      	movs	r1, #113	@ 0x71
 8003aee:	9303      	str	r3, [sp, #12]
 8003af0:	f001 f890 	bl	8004c14 <SPI_I2S_ITConfig>
 8003af4:	9b03      	ldr	r3, [sp, #12]
 8003af6:	f853 3028 	ldr.w	r3, [r3, r8, lsl #2]
 8003afa:	681b      	ldr	r3, [r3, #0]
 8003afc:	4798      	blx	r3
 8003afe:	9802      	ldr	r0, [sp, #8]
 8003b00:	8903      	ldrh	r3, [r0, #8]
 8003b02:	079a      	lsls	r2, r3, #30
 8003b04:	d080      	beq.n	8003a08 <BSP_SPI_Read+0xf4>
 8003b06:	e782      	b.n	8003a0e <BSP_SPI_Read+0xfa>
 8003b08:	2200      	movs	r2, #0
 8003b0a:	2160      	movs	r1, #96	@ 0x60
 8003b0c:	f001 f882 	bl	8004c14 <SPI_I2S_ITConfig>
 8003b10:	e72a      	b.n	8003968 <BSP_SPI_Read+0x54>
 8003b12:	bf00      	nop
 8003b14:	20003bbc 			@ <UNDEFINED> instruction: 0x20003bbc
 8003b18:	0800964c 	stmdaeq	r0, {r2, r3, r6, r9, sl, ip, pc}
 8003b1c:	20003bc8 	andcs	r3, r0, r8, asr #23
 8003b20:	20003c58 	andcs	r3, r0, r8, asr ip
 8003b24:	20003bc0 	andcs	r3, r0, r0, asr #23

08003b28 <BSP_SPI_SetStateCS>:
 8003b28:	2801      	cmp	r0, #1
 8003b2a:	d80e      	bhi.n	8003b4a <BSP_SPI_SetStateCS+0x22>
 8003b2c:	4a07      	ldr	r2, [pc, #28]	@ (8003b4c <BSP_SPI_SetStateCS+0x24>)
 8003b2e:	4b08      	ldr	r3, [pc, #32]	@ (8003b50 <BSP_SPI_SetStateCS+0x28>)
 8003b30:	b129      	cbz	r1, 8003b3e <BSP_SPI_SetStateCS+0x16>
 8003b32:	f832 1010 	ldrh.w	r1, [r2, r0, lsl #1]
 8003b36:	f853 0020 	ldr.w	r0, [r3, r0, lsl #2]
 8003b3a:	f000 bee3 	b.w	8004904 <GPIO_SetBits>
 8003b3e:	f832 1010 	ldrh.w	r1, [r2, r0, lsl #1]
 8003b42:	f853 0020 	ldr.w	r0, [r3, r0, lsl #2]
 8003b46:	f000 bedf 	b.w	8004908 <GPIO_ResetBits>
 8003b4a:	4770      	bx	lr
 8003b4c:	08009654 	stmdaeq	r0, {r2, r4, r6, r9, sl, ip, pc}
 8003b50:	08009658 	stmdaeq	r0, {r3, r4, r6, r9, sl, ip, pc}

08003b54 <SPI1_IRQHandler>:
 8003b54:	b538      	push	{r3, r4, r5, lr}
 8003b56:	f7fc fb87 	bl	8000268 <CPU_SR_Save>
 8003b5a:	4d24      	ldr	r5, [pc, #144]	@ (8003bec <SPI1_IRQHandler+0x98>)
 8003b5c:	4604      	mov	r4, r0
 8003b5e:	f003 ff6b 	bl	8007a38 <CPU_IntDisMeasStart>
 8003b62:	f001 fbad 	bl	80052c0 <OSIntEnter>
 8003b66:	f003 ff81 	bl	8007a6c <CPU_IntDisMeasStop>
 8003b6a:	4620      	mov	r0, r4
 8003b6c:	f7fc fb80 	bl	8000270 <CPU_SR_Restore>
 8003b70:	2171      	movs	r1, #113	@ 0x71
 8003b72:	4628      	mov	r0, r5
 8003b74:	f001 f85e 	bl	8004c34 <SPI_I2S_GetITStatus>
 8003b78:	2801      	cmp	r0, #1
 8003b7a:	d01b      	beq.n	8003bb4 <SPI1_IRQHandler+0x60>
 8003b7c:	4c1b      	ldr	r4, [pc, #108]	@ (8003bec <SPI1_IRQHandler+0x98>)
 8003b7e:	2160      	movs	r1, #96	@ 0x60
 8003b80:	4620      	mov	r0, r4
 8003b82:	f001 f857 	bl	8004c34 <SPI_I2S_GetITStatus>
 8003b86:	2801      	cmp	r0, #1
 8003b88:	d110      	bne.n	8003bac <SPI1_IRQHandler+0x58>
 8003b8a:	4a19      	ldr	r2, [pc, #100]	@ (8003bf0 <SPI1_IRQHandler+0x9c>)
 8003b8c:	89a3      	ldrh	r3, [r4, #12]
 8003b8e:	6c14      	ldr	r4, [r2, #64]	@ 0x40
 8003b90:	b298      	uxth	r0, r3
 8003b92:	1c63      	adds	r3, r4, #1
 8003b94:	4259      	negs	r1, r3
 8003b96:	f001 013f 	and.w	r1, r1, #63	@ 0x3f
 8003b9a:	f003 033f 	and.w	r3, r3, #63	@ 0x3f
 8003b9e:	bf58      	it	pl
 8003ba0:	424b      	negpl	r3, r1
 8003ba2:	6c51      	ldr	r1, [r2, #68]	@ 0x44
 8003ba4:	428b      	cmp	r3, r1
 8003ba6:	bf1c      	itt	ne
 8003ba8:	5510      	strbne	r0, [r2, r4]
 8003baa:	6413      	strne	r3, [r2, #64]	@ 0x40
 8003bac:	e8bd 4038 	ldmia.w	sp!, {r3, r4, r5, lr}
 8003bb0:	f001 bb96 	b.w	80052e0 <OSIntExit>
 8003bb4:	4b0f      	ldr	r3, [pc, #60]	@ (8003bf4 <SPI1_IRQHandler+0xa0>)
 8003bb6:	e9d3 2120 	ldrd	r2, r1, [r3, #128]	@ 0x80
 8003bba:	428a      	cmp	r2, r1
 8003bbc:	d00c      	beq.n	8003bd8 <SPI1_IRQHandler+0x84>
 8003bbe:	1c4a      	adds	r2, r1, #1
 8003bc0:	4250      	negs	r0, r2
 8003bc2:	f000 007f 	and.w	r0, r0, #127	@ 0x7f
 8003bc6:	f002 027f 	and.w	r2, r2, #127	@ 0x7f
 8003bca:	5c59      	ldrb	r1, [r3, r1]
 8003bcc:	7329      	strb	r1, [r5, #12]
 8003bce:	bf58      	it	pl
 8003bd0:	4242      	negpl	r2, r0
 8003bd2:	f8c3 2084 	str.w	r2, [r3, #132]	@ 0x84
 8003bd6:	e7d1      	b.n	8003b7c <SPI1_IRQHandler+0x28>
 8003bd8:	2200      	movs	r2, #0
 8003bda:	2171      	movs	r1, #113	@ 0x71
 8003bdc:	4628      	mov	r0, r5
 8003bde:	f001 f819 	bl	8004c14 <SPI_I2S_ITConfig>
 8003be2:	4b05      	ldr	r3, [pc, #20]	@ (8003bf8 <SPI1_IRQHandler+0xa4>)
 8003be4:	681b      	ldr	r3, [r3, #0]
 8003be6:	685b      	ldr	r3, [r3, #4]
 8003be8:	4798      	blx	r3
 8003bea:	e7c7      	b.n	8003b7c <SPI1_IRQHandler+0x28>
 8003bec:	40013000 	andmi	r3, r1, r0
 8003bf0:	20003bc8 	andcs	r3, r0, r8, asr #23
 8003bf4:	20003c58 	andcs	r3, r0, r8, asr ip
 8003bf8:	20003bc0 	andcs	r3, r0, r0, asr #23

08003bfc <SPI3_IRQHandler>:
 8003bfc:	b538      	push	{r3, r4, r5, lr}
 8003bfe:	f7fc fb33 	bl	8000268 <CPU_SR_Save>
 8003c02:	4d2a      	ldr	r5, [pc, #168]	@ (8003cac <SPI3_IRQHandler+0xb0>)
 8003c04:	4604      	mov	r4, r0
 8003c06:	f003 ff17 	bl	8007a38 <CPU_IntDisMeasStart>
 8003c0a:	f001 fb59 	bl	80052c0 <OSIntEnter>
 8003c0e:	f003 ff2d 	bl	8007a6c <CPU_IntDisMeasStop>
 8003c12:	4620      	mov	r0, r4
 8003c14:	f7fc fb2c 	bl	8000270 <CPU_SR_Restore>
 8003c18:	2171      	movs	r1, #113	@ 0x71
 8003c1a:	4628      	mov	r0, r5
 8003c1c:	f001 f80a 	bl	8004c34 <SPI_I2S_GetITStatus>
 8003c20:	2801      	cmp	r0, #1
 8003c22:	d00a      	beq.n	8003c3a <SPI3_IRQHandler+0x3e>
 8003c24:	4c21      	ldr	r4, [pc, #132]	@ (8003cac <SPI3_IRQHandler+0xb0>)
 8003c26:	2160      	movs	r1, #96	@ 0x60
 8003c28:	4620      	mov	r0, r4
 8003c2a:	f001 f803 	bl	8004c34 <SPI_I2S_GetITStatus>
 8003c2e:	2801      	cmp	r0, #1
 8003c30:	d017      	beq.n	8003c62 <SPI3_IRQHandler+0x66>
 8003c32:	e8bd 4038 	ldmia.w	sp!, {r3, r4, r5, lr}
 8003c36:	f001 bb53 	b.w	80052e0 <OSIntExit>
 8003c3a:	4b1d      	ldr	r3, [pc, #116]	@ (8003cb0 <SPI3_IRQHandler+0xb4>)
 8003c3c:	e9d3 2142 	ldrd	r2, r1, [r3, #264]	@ 0x108
 8003c40:	428a      	cmp	r2, r1
 8003c42:	d028      	beq.n	8003c96 <SPI3_IRQHandler+0x9a>
 8003c44:	1c4a      	adds	r2, r1, #1
 8003c46:	4250      	negs	r0, r2
 8003c48:	4419      	add	r1, r3
 8003c4a:	f000 007f 	and.w	r0, r0, #127	@ 0x7f
 8003c4e:	f002 027f 	and.w	r2, r2, #127	@ 0x7f
 8003c52:	f891 1088 	ldrb.w	r1, [r1, #136]	@ 0x88
 8003c56:	7329      	strb	r1, [r5, #12]
 8003c58:	bf58      	it	pl
 8003c5a:	4242      	negpl	r2, r0
 8003c5c:	f8c3 210c 	str.w	r2, [r3, #268]	@ 0x10c
 8003c60:	e7e0      	b.n	8003c24 <SPI3_IRQHandler+0x28>
 8003c62:	4a14      	ldr	r2, [pc, #80]	@ (8003cb4 <SPI3_IRQHandler+0xb8>)
 8003c64:	89a3      	ldrh	r3, [r4, #12]
 8003c66:	f8d2 0088 	ldr.w	r0, [r2, #136]	@ 0x88
 8003c6a:	b29c      	uxth	r4, r3
 8003c6c:	1c43      	adds	r3, r0, #1
 8003c6e:	4259      	negs	r1, r3
 8003c70:	f001 013f 	and.w	r1, r1, #63	@ 0x3f
 8003c74:	f003 033f 	and.w	r3, r3, #63	@ 0x3f
 8003c78:	bf58      	it	pl
 8003c7a:	424b      	negpl	r3, r1
 8003c7c:	f8d2 108c 	ldr.w	r1, [r2, #140]	@ 0x8c
 8003c80:	428b      	cmp	r3, r1
 8003c82:	d0d6      	beq.n	8003c32 <SPI3_IRQHandler+0x36>
 8003c84:	4410      	add	r0, r2
 8003c86:	f8c2 3088 	str.w	r3, [r2, #136]	@ 0x88
 8003c8a:	f880 4048 	strb.w	r4, [r0, #72]	@ 0x48
 8003c8e:	e8bd 4038 	ldmia.w	sp!, {r3, r4, r5, lr}
 8003c92:	f001 bb25 	b.w	80052e0 <OSIntExit>
 8003c96:	2200      	movs	r2, #0
 8003c98:	2171      	movs	r1, #113	@ 0x71
 8003c9a:	4628      	mov	r0, r5
 8003c9c:	f000 ffba 	bl	8004c14 <SPI_I2S_ITConfig>
 8003ca0:	4b05      	ldr	r3, [pc, #20]	@ (8003cb8 <SPI3_IRQHandler+0xbc>)
 8003ca2:	685b      	ldr	r3, [r3, #4]
 8003ca4:	685b      	ldr	r3, [r3, #4]
 8003ca6:	4798      	blx	r3
